ARM GAS  C:\Users\plod1602\AppData\Local\Temp\cc6YQjGN.s 			page 1


   1              		.syntax unified
   2              		.cpu cortex-m3
   3              		.fpu softvfp
   4              		.eabi_attribute 20, 1
   5              		.eabi_attribute 21, 1
   6              		.eabi_attribute 23, 3
   7              		.eabi_attribute 24, 1
   8              		.eabi_attribute 25, 1
   9              		.eabi_attribute 26, 1
  10              		.eabi_attribute 30, 6
  11              		.eabi_attribute 34, 1
  12              		.eabi_attribute 18, 4
  13              		.thumb
  14              		.file	"CAN_1_TX_RX_func.c"
  15              		.text
  16              	.Ltext0:
  17              		.cfi_sections	.debug_frame
  18              		.section	.text.CAN_1_SendMsg,"ax",%progbits
  19              		.align	2
  20              		.global	CAN_1_SendMsg
  21              		.thumb
  22              		.thumb_func
  23              		.type	CAN_1_SendMsg, %function
  24              	CAN_1_SendMsg:
  25              	.LFB56:
  26              		.file 1 ".\\Generated_Source\\PSoC5\\CAN_1_TX_RX_func.c"
   1:.\Generated_Source\PSoC5/CAN_1_TX_RX_func.c **** /*******************************************************************************
   2:.\Generated_Source\PSoC5/CAN_1_TX_RX_func.c **** * File Name: CAN_1_TX_RX_func.c
   3:.\Generated_Source\PSoC5/CAN_1_TX_RX_func.c **** * Version 3.0
   4:.\Generated_Source\PSoC5/CAN_1_TX_RX_func.c **** *
   5:.\Generated_Source\PSoC5/CAN_1_TX_RX_func.c **** * Description:
   6:.\Generated_Source\PSoC5/CAN_1_TX_RX_func.c **** *  There are functions process "Full" Receive and Transmit mailboxes:
   7:.\Generated_Source\PSoC5/CAN_1_TX_RX_func.c **** *     - CAN_1_SendMsg0-7();
   8:.\Generated_Source\PSoC5/CAN_1_TX_RX_func.c **** *     - CAN_1_ReceiveMsg0-15();
   9:.\Generated_Source\PSoC5/CAN_1_TX_RX_func.c **** *  Transmission of message, and receive routine for "Basic" mailboxes:
  10:.\Generated_Source\PSoC5/CAN_1_TX_RX_func.c **** *     - CAN_1_SendMsg();
  11:.\Generated_Source\PSoC5/CAN_1_TX_RX_func.c **** *     - CAN_1_TxCancel();
  12:.\Generated_Source\PSoC5/CAN_1_TX_RX_func.c **** *     - CAN_1_ReceiveMsg();
  13:.\Generated_Source\PSoC5/CAN_1_TX_RX_func.c **** *
  14:.\Generated_Source\PSoC5/CAN_1_TX_RX_func.c **** *  Note:
  15:.\Generated_Source\PSoC5/CAN_1_TX_RX_func.c **** *   None
  16:.\Generated_Source\PSoC5/CAN_1_TX_RX_func.c **** *
  17:.\Generated_Source\PSoC5/CAN_1_TX_RX_func.c **** ********************************************************************************
  18:.\Generated_Source\PSoC5/CAN_1_TX_RX_func.c **** * Copyright 2008-2015, Cypress Semiconductor Corporation.  All rights reserved.
  19:.\Generated_Source\PSoC5/CAN_1_TX_RX_func.c **** * You may use this file only in accordance with the license, terms, conditions,
  20:.\Generated_Source\PSoC5/CAN_1_TX_RX_func.c **** * disclaimers, and limitations in the end user license agreement accompanying
  21:.\Generated_Source\PSoC5/CAN_1_TX_RX_func.c **** * the software package with which this file was provided.
  22:.\Generated_Source\PSoC5/CAN_1_TX_RX_func.c **** *******************************************************************************/
  23:.\Generated_Source\PSoC5/CAN_1_TX_RX_func.c **** 
  24:.\Generated_Source\PSoC5/CAN_1_TX_RX_func.c **** #include "CAN_1.h"
  25:.\Generated_Source\PSoC5/CAN_1_TX_RX_func.c **** 
  26:.\Generated_Source\PSoC5/CAN_1_TX_RX_func.c **** 
  27:.\Generated_Source\PSoC5/CAN_1_TX_RX_func.c **** /* `#START TX_RX_FUNCTION` */
  28:.\Generated_Source\PSoC5/CAN_1_TX_RX_func.c **** #include "CAN_Communication.h"
  29:.\Generated_Source\PSoC5/CAN_1_TX_RX_func.c **** /* `#END` */
  30:.\Generated_Source\PSoC5/CAN_1_TX_RX_func.c **** 
  31:.\Generated_Source\PSoC5/CAN_1_TX_RX_func.c **** 
ARM GAS  C:\Users\plod1602\AppData\Local\Temp\cc6YQjGN.s 			page 2


  32:.\Generated_Source\PSoC5/CAN_1_TX_RX_func.c **** /*******************************************************************************
  33:.\Generated_Source\PSoC5/CAN_1_TX_RX_func.c **** * FUNCTION NAME:   CAN_1_SendMsg
  34:.\Generated_Source\PSoC5/CAN_1_TX_RX_func.c **** ********************************************************************************
  35:.\Generated_Source\PSoC5/CAN_1_TX_RX_func.c **** *
  36:.\Generated_Source\PSoC5/CAN_1_TX_RX_func.c **** * Summary:
  37:.\Generated_Source\PSoC5/CAN_1_TX_RX_func.c **** *  This function is Send Message from one of Basic mailboxes. The function loops
  38:.\Generated_Source\PSoC5/CAN_1_TX_RX_func.c **** *  through the transmit message buffer designed as Basic CAN mailboxes for the
  39:.\Generated_Source\PSoC5/CAN_1_TX_RX_func.c **** *  first free available and sends from it. The number of retries is limited.
  40:.\Generated_Source\PSoC5/CAN_1_TX_RX_func.c **** *
  41:.\Generated_Source\PSoC5/CAN_1_TX_RX_func.c **** * Parameters:
  42:.\Generated_Source\PSoC5/CAN_1_TX_RX_func.c **** *  message: The pointer to a structure that contains all required data to send
  43:.\Generated_Source\PSoC5/CAN_1_TX_RX_func.c **** *           messages.
  44:.\Generated_Source\PSoC5/CAN_1_TX_RX_func.c **** *
  45:.\Generated_Source\PSoC5/CAN_1_TX_RX_func.c **** * Return:
  46:.\Generated_Source\PSoC5/CAN_1_TX_RX_func.c **** *  Indication if message has been sent.
  47:.\Generated_Source\PSoC5/CAN_1_TX_RX_func.c **** *   Define                             Description
  48:.\Generated_Source\PSoC5/CAN_1_TX_RX_func.c **** *    CYRET_SUCCESS                      The function passed successfully
  49:.\Generated_Source\PSoC5/CAN_1_TX_RX_func.c **** *    CAN_1_FAIL              The function failed
  50:.\Generated_Source\PSoC5/CAN_1_TX_RX_func.c **** *
  51:.\Generated_Source\PSoC5/CAN_1_TX_RX_func.c **** *******************************************************************************/
  52:.\Generated_Source\PSoC5/CAN_1_TX_RX_func.c **** uint8 CAN_1_SendMsg(const CAN_1_TX_MSG *message) 
  53:.\Generated_Source\PSoC5/CAN_1_TX_RX_func.c **** {
  27              		.loc 1 53 0
  28              		.cfi_startproc
  29              		@ args = 0, pretend = 0, frame = 24
  30              		@ frame_needed = 1, uses_anonymous_args = 0
  31              		@ link register save eliminated.
  32 0000 80B4     		push	{r7}
  33              		.cfi_def_cfa_offset 4
  34              		.cfi_offset 7, -4
  35 0002 87B0     		sub	sp, sp, #28
  36              		.cfi_def_cfa_offset 32
  37 0004 00AF     		add	r7, sp, #0
  38              		.cfi_def_cfa_register 7
  39 0006 7860     		str	r0, [r7, #4]
  54:.\Generated_Source\PSoC5/CAN_1_TX_RX_func.c ****     uint8 i, j, shift;
  55:.\Generated_Source\PSoC5/CAN_1_TX_RX_func.c ****     uint8 retry = 0u;
  40              		.loc 1 55 0
  41 0008 0023     		movs	r3, #0
  42 000a 3B75     		strb	r3, [r7, #20]
  56:.\Generated_Source\PSoC5/CAN_1_TX_RX_func.c ****     uint8 result = CAN_1_FAIL;
  43              		.loc 1 56 0
  44 000c 0123     		movs	r3, #1
  45 000e FB74     		strb	r3, [r7, #19]
  57:.\Generated_Source\PSoC5/CAN_1_TX_RX_func.c ****     uint32 regTemp;
  58:.\Generated_Source\PSoC5/CAN_1_TX_RX_func.c **** 
  59:.\Generated_Source\PSoC5/CAN_1_TX_RX_func.c ****     while (retry < CAN_1_RETRY_NUMBER)
  46              		.loc 1 59 0
  47 0010 9BE0     		b	.L2
  48              	.L21:
  60:.\Generated_Source\PSoC5/CAN_1_TX_RX_func.c ****     {
  61:.\Generated_Source\PSoC5/CAN_1_TX_RX_func.c ****         shift = 1u;    /* Start from first mailbox */
  49              		.loc 1 61 0
  50 0012 0123     		movs	r3, #1
  51 0014 7B75     		strb	r3, [r7, #21]
  62:.\Generated_Source\PSoC5/CAN_1_TX_RX_func.c ****         for (i = 0u; i < CAN_1_NUMBER_OF_TX_MAILBOXES; i++)
  52              		.loc 1 62 0
ARM GAS  C:\Users\plod1602\AppData\Local\Temp\cc6YQjGN.s 			page 3


  53 0016 0023     		movs	r3, #0
  54 0018 FB75     		strb	r3, [r7, #23]
  55 001a 8BE0     		b	.L3
  56              	.L18:
  63:.\Generated_Source\PSoC5/CAN_1_TX_RX_func.c ****         {
  64:.\Generated_Source\PSoC5/CAN_1_TX_RX_func.c ****             /* Find Basic TX mailboxes */
  65:.\Generated_Source\PSoC5/CAN_1_TX_RX_func.c ****             if ((CAN_1_TX_MAILBOX_TYPE & shift) == 0u)
  66:.\Generated_Source\PSoC5/CAN_1_TX_RX_func.c ****             {
  67:.\Generated_Source\PSoC5/CAN_1_TX_RX_func.c ****                 /* Find free mailbox */
  68:.\Generated_Source\PSoC5/CAN_1_TX_RX_func.c ****                 #if (CY_PSOC3 || CY_PSOC5)
  69:.\Generated_Source\PSoC5/CAN_1_TX_RX_func.c ****                     if ((CAN_1_BUF_SR_REG.byte[2] & shift) == 0u)
  57              		.loc 1 69 0
  58 001c 504B     		ldr	r3, .L23
  59 001e 9B78     		ldrb	r3, [r3, #2]
  60 0020 DAB2     		uxtb	r2, r3
  61 0022 7B7D     		ldrb	r3, [r7, #21]
  62 0024 1340     		ands	r3, r3, r2
  63 0026 DBB2     		uxtb	r3, r3
  64 0028 002B     		cmp	r3, #0
  65 002a 79D1     		bne	.L4
  70:.\Generated_Source\PSoC5/CAN_1_TX_RX_func.c ****                 #else  /* CY_PSOC4 */
  71:.\Generated_Source\PSoC5/CAN_1_TX_RX_func.c ****                     if ((CAN_1_BUF_SR_REG &
  72:.\Generated_Source\PSoC5/CAN_1_TX_RX_func.c ****                         (uint32) ((uint32) shift << CAN_1_TWO_BYTE_OFFSET)) == 0u)
  73:.\Generated_Source\PSoC5/CAN_1_TX_RX_func.c ****                 #endif /* CY_PSOC3 || CY_PSOC5 */
  74:.\Generated_Source\PSoC5/CAN_1_TX_RX_func.c ****                     {
  75:.\Generated_Source\PSoC5/CAN_1_TX_RX_func.c ****                         regTemp = 0u;
  66              		.loc 1 75 0
  67 002c 0023     		movs	r3, #0
  68 002e FB60     		str	r3, [r7, #12]
  76:.\Generated_Source\PSoC5/CAN_1_TX_RX_func.c **** 
  77:.\Generated_Source\PSoC5/CAN_1_TX_RX_func.c ****                         /* Set message parameters */
  78:.\Generated_Source\PSoC5/CAN_1_TX_RX_func.c ****                         if (message->rtr != CAN_1_STANDARD_MESSAGE)
  69              		.loc 1 78 0
  70 0030 7B68     		ldr	r3, [r7, #4]
  71 0032 1B79     		ldrb	r3, [r3, #4]	@ zero_extendqisi2
  72 0034 002B     		cmp	r3, #0
  73 0036 02D0     		beq	.L5
  79:.\Generated_Source\PSoC5/CAN_1_TX_RX_func.c ****                         {
  80:.\Generated_Source\PSoC5/CAN_1_TX_RX_func.c ****                             regTemp = CAN_1_TX_RTR_MASK;    /* RTR message Enable */
  74              		.loc 1 80 0
  75 0038 4FF40013 		mov	r3, #2097152
  76 003c FB60     		str	r3, [r7, #12]
  77              	.L5:
  81:.\Generated_Source\PSoC5/CAN_1_TX_RX_func.c ****                         }
  82:.\Generated_Source\PSoC5/CAN_1_TX_RX_func.c **** 
  83:.\Generated_Source\PSoC5/CAN_1_TX_RX_func.c ****                         if (message->ide == CAN_1_STANDARD_MESSAGE)
  78              		.loc 1 83 0
  79 003e 7B68     		ldr	r3, [r7, #4]
  80 0040 5B79     		ldrb	r3, [r3, #5]	@ zero_extendqisi2
  81 0042 002B     		cmp	r3, #0
  82 0044 09D1     		bne	.L6
  84:.\Generated_Source\PSoC5/CAN_1_TX_RX_func.c ****                         {
  85:.\Generated_Source\PSoC5/CAN_1_TX_RX_func.c ****                             CAN_1_SET_TX_ID_STANDARD_MSG(i, message->id);
  83              		.loc 1 85 0
  84 0046 FB7D     		ldrb	r3, [r7, #23]	@ zero_extendqisi2
  85 0048 1A01     		lsls	r2, r3, #4
  86 004a 464B     		ldr	r3, .L23+4
ARM GAS  C:\Users\plod1602\AppData\Local\Temp\cc6YQjGN.s 			page 4


  87 004c 1344     		add	r3, r3, r2
  88 004e 0433     		adds	r3, r3, #4
  89 0050 7A68     		ldr	r2, [r7, #4]
  90 0052 1268     		ldr	r2, [r2]
  91 0054 5205     		lsls	r2, r2, #21
  92 0056 1A60     		str	r2, [r3]
  93 0058 0CE0     		b	.L7
  94              	.L6:
  86:.\Generated_Source\PSoC5/CAN_1_TX_RX_func.c ****                         }
  87:.\Generated_Source\PSoC5/CAN_1_TX_RX_func.c ****                         else
  88:.\Generated_Source\PSoC5/CAN_1_TX_RX_func.c ****                         {
  89:.\Generated_Source\PSoC5/CAN_1_TX_RX_func.c ****                             regTemp |= CAN_1_TX_IDE_MASK;
  95              		.loc 1 89 0
  96 005a FB68     		ldr	r3, [r7, #12]
  97 005c 43F48013 		orr	r3, r3, #1048576
  98 0060 FB60     		str	r3, [r7, #12]
  90:.\Generated_Source\PSoC5/CAN_1_TX_RX_func.c ****                             CAN_1_SET_TX_ID_EXTENDED_MSG(i, message->id);
  99              		.loc 1 90 0
 100 0062 FB7D     		ldrb	r3, [r7, #23]	@ zero_extendqisi2
 101 0064 1A01     		lsls	r2, r3, #4
 102 0066 3F4B     		ldr	r3, .L23+4
 103 0068 1344     		add	r3, r3, r2
 104 006a 0433     		adds	r3, r3, #4
 105 006c 7A68     		ldr	r2, [r7, #4]
 106 006e 1268     		ldr	r2, [r2]
 107 0070 D200     		lsls	r2, r2, #3
 108 0072 1A60     		str	r2, [r3]
 109              	.L7:
  91:.\Generated_Source\PSoC5/CAN_1_TX_RX_func.c ****                         }
  92:.\Generated_Source\PSoC5/CAN_1_TX_RX_func.c **** 
  93:.\Generated_Source\PSoC5/CAN_1_TX_RX_func.c ****                         if (message->dlc < CAN_1_TX_DLC_MAX_VALUE)
 110              		.loc 1 93 0
 111 0074 7B68     		ldr	r3, [r7, #4]
 112 0076 9B79     		ldrb	r3, [r3, #6]	@ zero_extendqisi2
 113 0078 072B     		cmp	r3, #7
 114 007a 06D8     		bhi	.L8
  94:.\Generated_Source\PSoC5/CAN_1_TX_RX_func.c ****                         {
  95:.\Generated_Source\PSoC5/CAN_1_TX_RX_func.c ****                             regTemp |= ((uint32) message->dlc) << CAN_1_TWO_BYTE_OFFSET;
 115              		.loc 1 95 0
 116 007c 7B68     		ldr	r3, [r7, #4]
 117 007e 9B79     		ldrb	r3, [r3, #6]	@ zero_extendqisi2
 118 0080 1B04     		lsls	r3, r3, #16
 119 0082 FA68     		ldr	r2, [r7, #12]
 120 0084 1343     		orrs	r3, r3, r2
 121 0086 FB60     		str	r3, [r7, #12]
 122 0088 03E0     		b	.L9
 123              	.L8:
  96:.\Generated_Source\PSoC5/CAN_1_TX_RX_func.c ****                         }
  97:.\Generated_Source\PSoC5/CAN_1_TX_RX_func.c ****                         else
  98:.\Generated_Source\PSoC5/CAN_1_TX_RX_func.c ****                         {
  99:.\Generated_Source\PSoC5/CAN_1_TX_RX_func.c ****                             regTemp |= CAN_1_TX_DLC_UPPER_VALUE;
 124              		.loc 1 99 0
 125 008a FB68     		ldr	r3, [r7, #12]
 126 008c 43F40023 		orr	r3, r3, #524288
 127 0090 FB60     		str	r3, [r7, #12]
 128              	.L9:
 100:.\Generated_Source\PSoC5/CAN_1_TX_RX_func.c ****                         }
ARM GAS  C:\Users\plod1602\AppData\Local\Temp\cc6YQjGN.s 			page 5


 101:.\Generated_Source\PSoC5/CAN_1_TX_RX_func.c **** 
 102:.\Generated_Source\PSoC5/CAN_1_TX_RX_func.c ****                         if (message->irq != CAN_1_TRANSMIT_INT_DISABLE)
 129              		.loc 1 102 0
 130 0092 7B68     		ldr	r3, [r7, #4]
 131 0094 DB79     		ldrb	r3, [r3, #7]	@ zero_extendqisi2
 132 0096 002B     		cmp	r3, #0
 133 0098 03D0     		beq	.L10
 103:.\Generated_Source\PSoC5/CAN_1_TX_RX_func.c ****                         {
 104:.\Generated_Source\PSoC5/CAN_1_TX_RX_func.c ****                             regTemp |= CAN_1_TX_INT_ENABLE_MASK;    /* Transmit Interrupt Enable */
 134              		.loc 1 104 0
 135 009a FB68     		ldr	r3, [r7, #12]
 136 009c 43F00403 		orr	r3, r3, #4
 137 00a0 FB60     		str	r3, [r7, #12]
 138              	.L10:
 105:.\Generated_Source\PSoC5/CAN_1_TX_RX_func.c ****                         }
 106:.\Generated_Source\PSoC5/CAN_1_TX_RX_func.c **** 
 107:.\Generated_Source\PSoC5/CAN_1_TX_RX_func.c ****                         for (j = 0u; (j < message->dlc) && (j < CAN_1_TX_DLC_MAX_VALUE); j++)
 139              		.loc 1 107 0
 140 00a2 0023     		movs	r3, #0
 141 00a4 BB75     		strb	r3, [r7, #22]
 142 00a6 17E0     		b	.L11
 143              	.L15:
 108:.\Generated_Source\PSoC5/CAN_1_TX_RX_func.c ****                         {
 109:.\Generated_Source\PSoC5/CAN_1_TX_RX_func.c ****                             #if (CY_PSOC3 || CY_PSOC5)
 110:.\Generated_Source\PSoC5/CAN_1_TX_RX_func.c ****                                 CAN_1_TX_DATA_BYTE(i, j) = message->msg->byte[j];
 144              		.loc 1 110 0
 145 00a8 FB7D     		ldrb	r3, [r7, #23]	@ zero_extendqisi2
 146 00aa 1A01     		lsls	r2, r3, #4
 147 00ac 2D4B     		ldr	r3, .L23+4
 148 00ae 1344     		add	r3, r3, r2
 149 00b0 BA7D     		ldrb	r2, [r7, #22]	@ zero_extendqisi2
 150 00b2 032A     		cmp	r2, #3
 151 00b4 03D9     		bls	.L12
 152              		.loc 1 110 0 is_stmt 0 discriminator 1
 153 00b6 BA7D     		ldrb	r2, [r7, #22]	@ zero_extendqisi2
 154 00b8 C2F10B02 		rsb	r2, r2, #11
 155 00bc 02E0     		b	.L13
 156              	.L12:
 157              		.loc 1 110 0 discriminator 2
 158 00be BA7D     		ldrb	r2, [r7, #22]	@ zero_extendqisi2
 159 00c0 C2F10302 		rsb	r2, r2, #3
 160              	.L13:
 161              		.loc 1 110 0 discriminator 4
 162 00c4 7968     		ldr	r1, [r7, #4]
 163 00c6 8868     		ldr	r0, [r1, #8]
 164 00c8 B97D     		ldrb	r1, [r7, #22]	@ zero_extendqisi2
 165 00ca 415C     		ldrb	r1, [r0, r1]	@ zero_extendqisi2
 166 00cc 1344     		add	r3, r3, r2
 167 00ce 0A46     		mov	r2, r1
 168 00d0 1A72     		strb	r2, [r3, #8]
 107:.\Generated_Source\PSoC5/CAN_1_TX_RX_func.c ****                         {
 169              		.loc 1 107 0 is_stmt 1 discriminator 4
 170 00d2 BB7D     		ldrb	r3, [r7, #22]	@ zero_extendqisi2
 171 00d4 0133     		adds	r3, r3, #1
 172 00d6 BB75     		strb	r3, [r7, #22]
 173              	.L11:
 107:.\Generated_Source\PSoC5/CAN_1_TX_RX_func.c ****                         {
ARM GAS  C:\Users\plod1602\AppData\Local\Temp\cc6YQjGN.s 			page 6


 174              		.loc 1 107 0 is_stmt 0 discriminator 2
 175 00d8 7B68     		ldr	r3, [r7, #4]
 176 00da 9B79     		ldrb	r3, [r3, #6]	@ zero_extendqisi2
 177 00dc BA7D     		ldrb	r2, [r7, #22]	@ zero_extendqisi2
 178 00de 9A42     		cmp	r2, r3
 179 00e0 02D2     		bcs	.L14
 107:.\Generated_Source\PSoC5/CAN_1_TX_RX_func.c ****                         {
 180              		.loc 1 107 0 discriminator 3
 181 00e2 BB7D     		ldrb	r3, [r7, #22]	@ zero_extendqisi2
 182 00e4 072B     		cmp	r3, #7
 183 00e6 DFD9     		bls	.L15
 184              	.L14:
 111:.\Generated_Source\PSoC5/CAN_1_TX_RX_func.c ****                             #else /* CY_PSOC4 */
 112:.\Generated_Source\PSoC5/CAN_1_TX_RX_func.c ****                                 CAN_1_TX_DATA_BYTE(i, j, message->msg->byte[j]);
 113:.\Generated_Source\PSoC5/CAN_1_TX_RX_func.c ****                             #endif /* CY_PSOC3 || CY_PSOC5 */
 114:.\Generated_Source\PSoC5/CAN_1_TX_RX_func.c ****                         }
 115:.\Generated_Source\PSoC5/CAN_1_TX_RX_func.c **** 
 116:.\Generated_Source\PSoC5/CAN_1_TX_RX_func.c ****                         /* Disable isr */
 117:.\Generated_Source\PSoC5/CAN_1_TX_RX_func.c ****     CyIntDisable(CAN_1_ISR_NUMBER);
 185              		.loc 1 117 0 is_stmt 1
 186 00e8 1F4B     		ldr	r3, .L23+8
 187 00ea 4FF48032 		mov	r2, #65536
 188 00ee 1A60     		str	r2, [r3]
 118:.\Generated_Source\PSoC5/CAN_1_TX_RX_func.c **** 
 119:.\Generated_Source\PSoC5/CAN_1_TX_RX_func.c ****                         /* WPN[23] and WPN[3] set to 1 for write to CAN Control reg */
 120:.\Generated_Source\PSoC5/CAN_1_TX_RX_func.c ****                         CY_SET_REG32(CAN_1_TX_CMD_PTR(i), (regTemp | CAN_1_TX_WPN_SET));
 189              		.loc 1 120 0
 190 00f0 FB7D     		ldrb	r3, [r7, #23]	@ zero_extendqisi2
 191 00f2 1A01     		lsls	r2, r3, #4
 192 00f4 1B4B     		ldr	r3, .L23+4
 193 00f6 1344     		add	r3, r3, r2
 194 00f8 1A46     		mov	r2, r3
 195 00fa FB68     		ldr	r3, [r7, #12]
 196 00fc 43F40003 		orr	r3, r3, #8388608
 197 0100 43F00803 		orr	r3, r3, #8
 198 0104 1360     		str	r3, [r2]
 121:.\Generated_Source\PSoC5/CAN_1_TX_RX_func.c **** 
 122:.\Generated_Source\PSoC5/CAN_1_TX_RX_func.c ****                         #if (CY_PSOC3 || CY_PSOC5)
 123:.\Generated_Source\PSoC5/CAN_1_TX_RX_func.c ****                             CY_SET_REG32(CAN_1_TX_CMD_PTR(i), CAN_1_SEND_MESSAGE);
 199              		.loc 1 123 0
 200 0106 FB7D     		ldrb	r3, [r7, #23]	@ zero_extendqisi2
 201 0108 1A01     		lsls	r2, r3, #4
 202 010a 164B     		ldr	r3, .L23+4
 203 010c 1344     		add	r3, r3, r2
 204 010e 1A46     		mov	r2, r3
 205 0110 0123     		movs	r3, #1
 206 0112 1360     		str	r3, [r2]
 124:.\Generated_Source\PSoC5/CAN_1_TX_RX_func.c ****                         #else /* CY_PSOC4 */
 125:.\Generated_Source\PSoC5/CAN_1_TX_RX_func.c ****                             if (message->sst != CAN_1_STANDARD_MESSAGE)
 126:.\Generated_Source\PSoC5/CAN_1_TX_RX_func.c ****                             {
 127:.\Generated_Source\PSoC5/CAN_1_TX_RX_func.c ****                                 /* Single Shot Transmission */
 128:.\Generated_Source\PSoC5/CAN_1_TX_RX_func.c ****                                 CAN_1_TX_CMD_REG(i) |= CAN_1_SEND_MESSAGE |
 129:.\Generated_Source\PSoC5/CAN_1_TX_RX_func.c ****                                 CAN_1_TX_ABORT_MASK;
 130:.\Generated_Source\PSoC5/CAN_1_TX_RX_func.c ****                             }
 131:.\Generated_Source\PSoC5/CAN_1_TX_RX_func.c ****                             else
 132:.\Generated_Source\PSoC5/CAN_1_TX_RX_func.c ****                             {
 133:.\Generated_Source\PSoC5/CAN_1_TX_RX_func.c ****                                 CAN_1_TX_CMD_REG(i) |= CAN_1_SEND_MESSAGE;
ARM GAS  C:\Users\plod1602\AppData\Local\Temp\cc6YQjGN.s 			page 7


 134:.\Generated_Source\PSoC5/CAN_1_TX_RX_func.c ****                             }
 135:.\Generated_Source\PSoC5/CAN_1_TX_RX_func.c ****                         #endif /* CY_PSOC3 || CY_PSOC5 */
 136:.\Generated_Source\PSoC5/CAN_1_TX_RX_func.c **** 
 137:.\Generated_Source\PSoC5/CAN_1_TX_RX_func.c ****                         /* Enable isr */
 138:.\Generated_Source\PSoC5/CAN_1_TX_RX_func.c ****     CyIntEnable(CAN_1_ISR_NUMBER);
 207              		.loc 1 138 0
 208 0114 154B     		ldr	r3, .L23+12
 209 0116 4FF48032 		mov	r2, #65536
 210 011a 1A60     		str	r2, [r3]
 139:.\Generated_Source\PSoC5/CAN_1_TX_RX_func.c **** 
 140:.\Generated_Source\PSoC5/CAN_1_TX_RX_func.c ****                         result = CYRET_SUCCESS;
 211              		.loc 1 140 0
 212 011c 0023     		movs	r3, #0
 213 011e FB74     		strb	r3, [r7, #19]
 214              	.L4:
 141:.\Generated_Source\PSoC5/CAN_1_TX_RX_func.c ****                     }
 142:.\Generated_Source\PSoC5/CAN_1_TX_RX_func.c ****             }
 143:.\Generated_Source\PSoC5/CAN_1_TX_RX_func.c ****             shift <<= 1u;
 215              		.loc 1 143 0
 216 0120 7B7D     		ldrb	r3, [r7, #21]
 217 0122 5B00     		lsls	r3, r3, #1
 218 0124 7B75     		strb	r3, [r7, #21]
 144:.\Generated_Source\PSoC5/CAN_1_TX_RX_func.c ****             if (result == CYRET_SUCCESS)
 219              		.loc 1 144 0
 220 0126 FB7C     		ldrb	r3, [r7, #19]	@ zero_extendqisi2
 221 0128 002B     		cmp	r3, #0
 222 012a 00D1     		bne	.L16
 145:.\Generated_Source\PSoC5/CAN_1_TX_RX_func.c ****             {
 146:.\Generated_Source\PSoC5/CAN_1_TX_RX_func.c ****                 break;
 223              		.loc 1 146 0
 224 012c 06E0     		b	.L17
 225              	.L16:
  62:.\Generated_Source\PSoC5/CAN_1_TX_RX_func.c ****         {
 226              		.loc 1 62 0 discriminator 2
 227 012e FB7D     		ldrb	r3, [r7, #23]	@ zero_extendqisi2
 228 0130 0133     		adds	r3, r3, #1
 229 0132 FB75     		strb	r3, [r7, #23]
 230              	.L3:
  62:.\Generated_Source\PSoC5/CAN_1_TX_RX_func.c ****         {
 231              		.loc 1 62 0 is_stmt 0 discriminator 1
 232 0134 FB7D     		ldrb	r3, [r7, #23]	@ zero_extendqisi2
 233 0136 072B     		cmp	r3, #7
 234 0138 7FF670AF 		bls	.L18
 235              	.L17:
 147:.\Generated_Source\PSoC5/CAN_1_TX_RX_func.c ****             }
 148:.\Generated_Source\PSoC5/CAN_1_TX_RX_func.c ****         }
 149:.\Generated_Source\PSoC5/CAN_1_TX_RX_func.c ****         if (result == CYRET_SUCCESS)
 236              		.loc 1 149 0 is_stmt 1
 237 013c FB7C     		ldrb	r3, [r7, #19]	@ zero_extendqisi2
 238 013e 002B     		cmp	r3, #0
 239 0140 00D1     		bne	.L19
 150:.\Generated_Source\PSoC5/CAN_1_TX_RX_func.c ****         {
 151:.\Generated_Source\PSoC5/CAN_1_TX_RX_func.c ****             break;
 240              		.loc 1 151 0
 241 0142 06E0     		b	.L20
 242              	.L19:
 152:.\Generated_Source\PSoC5/CAN_1_TX_RX_func.c ****         }
ARM GAS  C:\Users\plod1602\AppData\Local\Temp\cc6YQjGN.s 			page 8


 153:.\Generated_Source\PSoC5/CAN_1_TX_RX_func.c ****         else
 154:.\Generated_Source\PSoC5/CAN_1_TX_RX_func.c ****         {
 155:.\Generated_Source\PSoC5/CAN_1_TX_RX_func.c ****             retry++;
 243              		.loc 1 155 0
 244 0144 3B7D     		ldrb	r3, [r7, #20]	@ zero_extendqisi2
 245 0146 0133     		adds	r3, r3, #1
 246 0148 3B75     		strb	r3, [r7, #20]
 247              	.L2:
  59:.\Generated_Source\PSoC5/CAN_1_TX_RX_func.c ****     {
 248              		.loc 1 59 0
 249 014a 3B7D     		ldrb	r3, [r7, #20]	@ zero_extendqisi2
 250 014c 022B     		cmp	r3, #2
 251 014e 7FF660AF 		bls	.L21
 252              	.L20:
 156:.\Generated_Source\PSoC5/CAN_1_TX_RX_func.c ****         }
 157:.\Generated_Source\PSoC5/CAN_1_TX_RX_func.c ****     }
 158:.\Generated_Source\PSoC5/CAN_1_TX_RX_func.c **** 
 159:.\Generated_Source\PSoC5/CAN_1_TX_RX_func.c ****     return (result);
 253              		.loc 1 159 0
 254 0152 FB7C     		ldrb	r3, [r7, #19]	@ zero_extendqisi2
 160:.\Generated_Source\PSoC5/CAN_1_TX_RX_func.c **** }
 255              		.loc 1 160 0
 256 0154 1846     		mov	r0, r3
 257 0156 1C37     		adds	r7, r7, #28
 258              		.cfi_def_cfa_offset 4
 259 0158 BD46     		mov	sp, r7
 260              		.cfi_def_cfa_register 13
 261              		@ sp needed
 262 015a 5DF8047B 		ldr	r7, [sp], #4
 263              		.cfi_restore 7
 264              		.cfi_def_cfa_offset 0
 265 015e 7047     		bx	lr
 266              	.L24:
 267              		.align	2
 268              	.L23:
 269 0160 08A00040 		.word	1073782792
 270 0164 20A00040 		.word	1073782816
 271 0168 80E100E0 		.word	-536813184
 272 016c 00E100E0 		.word	-536813312
 273              		.cfi_endproc
 274              	.LFE56:
 275              		.size	CAN_1_SendMsg, .-CAN_1_SendMsg
 276              		.section	.text.CAN_1_TxCancel,"ax",%progbits
 277              		.align	2
 278              		.global	CAN_1_TxCancel
 279              		.thumb
 280              		.thumb_func
 281              		.type	CAN_1_TxCancel, %function
 282              	CAN_1_TxCancel:
 283              	.LFB57:
 161:.\Generated_Source\PSoC5/CAN_1_TX_RX_func.c **** 
 162:.\Generated_Source\PSoC5/CAN_1_TX_RX_func.c **** 
 163:.\Generated_Source\PSoC5/CAN_1_TX_RX_func.c **** /*******************************************************************************
 164:.\Generated_Source\PSoC5/CAN_1_TX_RX_func.c **** * FUNCTION NAME:   CAN_1_TxCancel
 165:.\Generated_Source\PSoC5/CAN_1_TX_RX_func.c **** ********************************************************************************
 166:.\Generated_Source\PSoC5/CAN_1_TX_RX_func.c **** *
 167:.\Generated_Source\PSoC5/CAN_1_TX_RX_func.c **** * Summary:
ARM GAS  C:\Users\plod1602\AppData\Local\Temp\cc6YQjGN.s 			page 9


 168:.\Generated_Source\PSoC5/CAN_1_TX_RX_func.c **** *  This function cancels transmission of a message that has been queued to be
 169:.\Generated_Source\PSoC5/CAN_1_TX_RX_func.c **** *  transmitted. Values between 0 and 7 are valid.
 170:.\Generated_Source\PSoC5/CAN_1_TX_RX_func.c **** *
 171:.\Generated_Source\PSoC5/CAN_1_TX_RX_func.c **** * Parameters:
 172:.\Generated_Source\PSoC5/CAN_1_TX_RX_func.c **** *  bufferId: The mailbox number.
 173:.\Generated_Source\PSoC5/CAN_1_TX_RX_func.c **** *
 174:.\Generated_Source\PSoC5/CAN_1_TX_RX_func.c **** * Return:
 175:.\Generated_Source\PSoC5/CAN_1_TX_RX_func.c **** *  None.
 176:.\Generated_Source\PSoC5/CAN_1_TX_RX_func.c **** *
 177:.\Generated_Source\PSoC5/CAN_1_TX_RX_func.c **** *******************************************************************************/
 178:.\Generated_Source\PSoC5/CAN_1_TX_RX_func.c **** void CAN_1_TxCancel(uint8 bufferId) 
 179:.\Generated_Source\PSoC5/CAN_1_TX_RX_func.c **** {
 284              		.loc 1 179 0
 285              		.cfi_startproc
 286              		@ args = 0, pretend = 0, frame = 8
 287              		@ frame_needed = 1, uses_anonymous_args = 0
 288              		@ link register save eliminated.
 289 0000 80B4     		push	{r7}
 290              		.cfi_def_cfa_offset 4
 291              		.cfi_offset 7, -4
 292 0002 83B0     		sub	sp, sp, #12
 293              		.cfi_def_cfa_offset 16
 294 0004 00AF     		add	r7, sp, #0
 295              		.cfi_def_cfa_register 7
 296 0006 0346     		mov	r3, r0
 297 0008 FB71     		strb	r3, [r7, #7]
 180:.\Generated_Source\PSoC5/CAN_1_TX_RX_func.c ****     if (bufferId < CAN_1_NUMBER_OF_TX_MAILBOXES)
 298              		.loc 1 180 0
 299 000a FB79     		ldrb	r3, [r7, #7]	@ zero_extendqisi2
 300 000c 072B     		cmp	r3, #7
 301 000e 12D8     		bhi	.L25
 181:.\Generated_Source\PSoC5/CAN_1_TX_RX_func.c ****     {
 182:.\Generated_Source\PSoC5/CAN_1_TX_RX_func.c ****         CAN_1_TX_ABORT_MESSAGE(bufferId);
 302              		.loc 1 182 0
 303 0010 FB79     		ldrb	r3, [r7, #7]	@ zero_extendqisi2
 304 0012 1A01     		lsls	r2, r3, #4
 305 0014 0A4B     		ldr	r3, .L27
 306 0016 1344     		add	r3, r3, r2
 307 0018 FA79     		ldrb	r2, [r7, #7]	@ zero_extendqisi2
 308 001a 1101     		lsls	r1, r2, #4
 309 001c 084A     		ldr	r2, .L27
 310 001e 0A44     		add	r2, r2, r1
 311 0020 1278     		ldrb	r2, [r2]
 312 0022 D2B2     		uxtb	r2, r2
 313 0024 D2B2     		uxtb	r2, r2
 314 0026 22F00302 		bic	r2, r2, #3
 315 002a D2B2     		uxtb	r2, r2
 316 002c 42F00202 		orr	r2, r2, #2
 317 0030 D2B2     		uxtb	r2, r2
 318 0032 D2B2     		uxtb	r2, r2
 319 0034 1A70     		strb	r2, [r3]
 320              	.L25:
 183:.\Generated_Source\PSoC5/CAN_1_TX_RX_func.c ****     }
 184:.\Generated_Source\PSoC5/CAN_1_TX_RX_func.c **** }
 321              		.loc 1 184 0
 322 0036 0C37     		adds	r7, r7, #12
 323              		.cfi_def_cfa_offset 4
ARM GAS  C:\Users\plod1602\AppData\Local\Temp\cc6YQjGN.s 			page 10


 324 0038 BD46     		mov	sp, r7
 325              		.cfi_def_cfa_register 13
 326              		@ sp needed
 327 003a 5DF8047B 		ldr	r7, [sp], #4
 328              		.cfi_restore 7
 329              		.cfi_def_cfa_offset 0
 330 003e 7047     		bx	lr
 331              	.L28:
 332              		.align	2
 333              	.L27:
 334 0040 20A00040 		.word	1073782816
 335              		.cfi_endproc
 336              	.LFE57:
 337              		.size	CAN_1_TxCancel, .-CAN_1_TxCancel
 338              		.section	.text.CAN_1_ReceiveMsg,"ax",%progbits
 339              		.align	2
 340              		.global	CAN_1_ReceiveMsg
 341              		.thumb
 342              		.thumb_func
 343              		.type	CAN_1_ReceiveMsg, %function
 344              	CAN_1_ReceiveMsg:
 345              	.LFB58:
 185:.\Generated_Source\PSoC5/CAN_1_TX_RX_func.c **** 
 186:.\Generated_Source\PSoC5/CAN_1_TX_RX_func.c **** 
 187:.\Generated_Source\PSoC5/CAN_1_TX_RX_func.c **** #if (CAN_1_TX0_FUNC_ENABLE)
 188:.\Generated_Source\PSoC5/CAN_1_TX_RX_func.c ****     /*******************************************************************************
 189:.\Generated_Source\PSoC5/CAN_1_TX_RX_func.c ****     * FUNCTION NAME:   CAN_1_SendMsg0
 190:.\Generated_Source\PSoC5/CAN_1_TX_RX_func.c ****     ********************************************************************************
 191:.\Generated_Source\PSoC5/CAN_1_TX_RX_func.c ****     *
 192:.\Generated_Source\PSoC5/CAN_1_TX_RX_func.c ****     * Summary:
 193:.\Generated_Source\PSoC5/CAN_1_TX_RX_func.c ****     *  This function is the entry point to Transmit Message 0. The function checks
 194:.\Generated_Source\PSoC5/CAN_1_TX_RX_func.c ****     *  if mailbox 0 doesn't already have un-transmitted messages waiting for
 195:.\Generated_Source\PSoC5/CAN_1_TX_RX_func.c ****     *  arbitration. If not initiate transmission of the message.
 196:.\Generated_Source\PSoC5/CAN_1_TX_RX_func.c ****     *  Generated only for the Transmit mailbox designed as Full.
 197:.\Generated_Source\PSoC5/CAN_1_TX_RX_func.c ****     *
 198:.\Generated_Source\PSoC5/CAN_1_TX_RX_func.c ****     * Parameters:
 199:.\Generated_Source\PSoC5/CAN_1_TX_RX_func.c ****     *  None.
 200:.\Generated_Source\PSoC5/CAN_1_TX_RX_func.c ****     *
 201:.\Generated_Source\PSoC5/CAN_1_TX_RX_func.c ****     * Return:
 202:.\Generated_Source\PSoC5/CAN_1_TX_RX_func.c ****     *  Indication if Message has been sent.
 203:.\Generated_Source\PSoC5/CAN_1_TX_RX_func.c ****     *   Define                             Description
 204:.\Generated_Source\PSoC5/CAN_1_TX_RX_func.c ****     *    CYRET_SUCCESS                      The function passed successfully
 205:.\Generated_Source\PSoC5/CAN_1_TX_RX_func.c ****     *    CAN_1_FAIL              The function failed
 206:.\Generated_Source\PSoC5/CAN_1_TX_RX_func.c ****     *
 207:.\Generated_Source\PSoC5/CAN_1_TX_RX_func.c ****     *******************************************************************************/
 208:.\Generated_Source\PSoC5/CAN_1_TX_RX_func.c ****     uint8 CAN_1_SendMsg0(void) 
 209:.\Generated_Source\PSoC5/CAN_1_TX_RX_func.c ****     {
 210:.\Generated_Source\PSoC5/CAN_1_TX_RX_func.c ****         uint8 result = CYRET_SUCCESS;
 211:.\Generated_Source\PSoC5/CAN_1_TX_RX_func.c **** 
 212:.\Generated_Source\PSoC5/CAN_1_TX_RX_func.c ****         #if (CY_PSOC3 || CY_PSOC5)
 213:.\Generated_Source\PSoC5/CAN_1_TX_RX_func.c ****             if ((CAN_1_TX[0u].txcmd.byte[0u] & CAN_1_TX_REQUEST_PENDING) != 0u)
 214:.\Generated_Source\PSoC5/CAN_1_TX_RX_func.c ****         #else  /* CY_PSOC4 */
 215:.\Generated_Source\PSoC5/CAN_1_TX_RX_func.c ****             if ((CAN_1_TX_CMD_REG(0u) & CAN_1_TX_REQUEST_PENDING) != 0u)
 216:.\Generated_Source\PSoC5/CAN_1_TX_RX_func.c ****         #endif /* CY_PSOC3 || CY_PSOC5 */
 217:.\Generated_Source\PSoC5/CAN_1_TX_RX_func.c ****             {
 218:.\Generated_Source\PSoC5/CAN_1_TX_RX_func.c ****                 result = CAN_1_FAIL;
 219:.\Generated_Source\PSoC5/CAN_1_TX_RX_func.c ****             }
ARM GAS  C:\Users\plod1602\AppData\Local\Temp\cc6YQjGN.s 			page 11


 220:.\Generated_Source\PSoC5/CAN_1_TX_RX_func.c ****             else
 221:.\Generated_Source\PSoC5/CAN_1_TX_RX_func.c ****             {
 222:.\Generated_Source\PSoC5/CAN_1_TX_RX_func.c ****                 /* `#START MESSAGE_0_TRASMITTED` */
 223:.\Generated_Source\PSoC5/CAN_1_TX_RX_func.c **** 
 224:.\Generated_Source\PSoC5/CAN_1_TX_RX_func.c ****                 /* `#END` */
 225:.\Generated_Source\PSoC5/CAN_1_TX_RX_func.c **** 
 226:.\Generated_Source\PSoC5/CAN_1_TX_RX_func.c ****                 #ifdef CAN_1_SEND_MSG_0_CALLBACK
 227:.\Generated_Source\PSoC5/CAN_1_TX_RX_func.c ****                     CAN_1_SendMsg_0_Callback();
 228:.\Generated_Source\PSoC5/CAN_1_TX_RX_func.c ****                 #endif /* CAN_1_SEND_MSG_0_CALLBACK */
 229:.\Generated_Source\PSoC5/CAN_1_TX_RX_func.c **** 
 230:.\Generated_Source\PSoC5/CAN_1_TX_RX_func.c ****                 CY_SET_REG32(CAN_1_TX_CMD_PTR(0u),
 231:.\Generated_Source\PSoC5/CAN_1_TX_RX_func.c ****                 CY_GET_REG32(CAN_1_TX_CMD_PTR(0u)) | CAN_1_SEND_MESSAGE);
 232:.\Generated_Source\PSoC5/CAN_1_TX_RX_func.c ****             }
 233:.\Generated_Source\PSoC5/CAN_1_TX_RX_func.c **** 
 234:.\Generated_Source\PSoC5/CAN_1_TX_RX_func.c ****         return (result);
 235:.\Generated_Source\PSoC5/CAN_1_TX_RX_func.c ****     }
 236:.\Generated_Source\PSoC5/CAN_1_TX_RX_func.c **** #endif /* CAN_1_TX0_FUNC_ENABLE */
 237:.\Generated_Source\PSoC5/CAN_1_TX_RX_func.c **** 
 238:.\Generated_Source\PSoC5/CAN_1_TX_RX_func.c **** 
 239:.\Generated_Source\PSoC5/CAN_1_TX_RX_func.c **** #if (CAN_1_TX1_FUNC_ENABLE)
 240:.\Generated_Source\PSoC5/CAN_1_TX_RX_func.c ****     /*******************************************************************************
 241:.\Generated_Source\PSoC5/CAN_1_TX_RX_func.c ****     * FUNCTION NAME:   CAN_1_SendMsg1
 242:.\Generated_Source\PSoC5/CAN_1_TX_RX_func.c ****     ********************************************************************************
 243:.\Generated_Source\PSoC5/CAN_1_TX_RX_func.c ****     *
 244:.\Generated_Source\PSoC5/CAN_1_TX_RX_func.c ****     * Summary:
 245:.\Generated_Source\PSoC5/CAN_1_TX_RX_func.c ****     *  This function is the entry point to Transmit Message 1. The function checks
 246:.\Generated_Source\PSoC5/CAN_1_TX_RX_func.c ****     *  if mailbox 1 doesn't already have un-transmitted messages waiting for
 247:.\Generated_Source\PSoC5/CAN_1_TX_RX_func.c ****     *  arbitration. If not initiate transmission of the message.
 248:.\Generated_Source\PSoC5/CAN_1_TX_RX_func.c ****     *  Generated only for the Transmit mailbox designed as Full.
 249:.\Generated_Source\PSoC5/CAN_1_TX_RX_func.c ****     *
 250:.\Generated_Source\PSoC5/CAN_1_TX_RX_func.c ****     * Parameters:
 251:.\Generated_Source\PSoC5/CAN_1_TX_RX_func.c ****     *  None.
 252:.\Generated_Source\PSoC5/CAN_1_TX_RX_func.c ****     *
 253:.\Generated_Source\PSoC5/CAN_1_TX_RX_func.c ****     * Return:
 254:.\Generated_Source\PSoC5/CAN_1_TX_RX_func.c ****     *  Indication if Message has been sent.
 255:.\Generated_Source\PSoC5/CAN_1_TX_RX_func.c ****     *   Define                             Description
 256:.\Generated_Source\PSoC5/CAN_1_TX_RX_func.c ****     *    CYRET_SUCCESS                      The function passed successfully
 257:.\Generated_Source\PSoC5/CAN_1_TX_RX_func.c ****     *    CAN_1_FAIL              The function failed
 258:.\Generated_Source\PSoC5/CAN_1_TX_RX_func.c ****     *
 259:.\Generated_Source\PSoC5/CAN_1_TX_RX_func.c ****     *******************************************************************************/
 260:.\Generated_Source\PSoC5/CAN_1_TX_RX_func.c ****     uint8 CAN_1_SendMsg1(void) 
 261:.\Generated_Source\PSoC5/CAN_1_TX_RX_func.c ****     {
 262:.\Generated_Source\PSoC5/CAN_1_TX_RX_func.c ****         uint8 result = CYRET_SUCCESS;
 263:.\Generated_Source\PSoC5/CAN_1_TX_RX_func.c **** 
 264:.\Generated_Source\PSoC5/CAN_1_TX_RX_func.c ****         #if (CY_PSOC3 || CY_PSOC5)
 265:.\Generated_Source\PSoC5/CAN_1_TX_RX_func.c ****             if ((CAN_1_TX[1u].txcmd.byte[0u] & CAN_1_TX_REQUEST_PENDING) != 0u)
 266:.\Generated_Source\PSoC5/CAN_1_TX_RX_func.c ****         #else  /* CY_PSOC4 */
 267:.\Generated_Source\PSoC5/CAN_1_TX_RX_func.c ****             if ((CAN_1_TX_CMD_REG(1u) & CAN_1_TX_REQUEST_PENDING) != 0u)
 268:.\Generated_Source\PSoC5/CAN_1_TX_RX_func.c ****         #endif /* CY_PSOC3 || CY_PSOC5 */
 269:.\Generated_Source\PSoC5/CAN_1_TX_RX_func.c ****             {
 270:.\Generated_Source\PSoC5/CAN_1_TX_RX_func.c ****                 result = CAN_1_FAIL;
 271:.\Generated_Source\PSoC5/CAN_1_TX_RX_func.c ****             }
 272:.\Generated_Source\PSoC5/CAN_1_TX_RX_func.c ****             else
 273:.\Generated_Source\PSoC5/CAN_1_TX_RX_func.c ****             {
 274:.\Generated_Source\PSoC5/CAN_1_TX_RX_func.c ****                 /* `#START MESSAGE_1_TRASMITTED` */
 275:.\Generated_Source\PSoC5/CAN_1_TX_RX_func.c **** 
 276:.\Generated_Source\PSoC5/CAN_1_TX_RX_func.c ****                 /* `#END` */
ARM GAS  C:\Users\plod1602\AppData\Local\Temp\cc6YQjGN.s 			page 12


 277:.\Generated_Source\PSoC5/CAN_1_TX_RX_func.c **** 
 278:.\Generated_Source\PSoC5/CAN_1_TX_RX_func.c ****                 #ifdef CAN_1_SEND_MSG_1_CALLBACK
 279:.\Generated_Source\PSoC5/CAN_1_TX_RX_func.c ****                     CAN_1_SendMsg_1_Callback();
 280:.\Generated_Source\PSoC5/CAN_1_TX_RX_func.c ****                 #endif /* CAN_1_SEND_MSG_1_CALLBACK */
 281:.\Generated_Source\PSoC5/CAN_1_TX_RX_func.c **** 
 282:.\Generated_Source\PSoC5/CAN_1_TX_RX_func.c ****                 CY_SET_REG32(CAN_1_TX_CMD_PTR(1u),
 283:.\Generated_Source\PSoC5/CAN_1_TX_RX_func.c ****                 CY_GET_REG32(CAN_1_TX_CMD_PTR(1u)) | CAN_1_SEND_MESSAGE);
 284:.\Generated_Source\PSoC5/CAN_1_TX_RX_func.c ****             }
 285:.\Generated_Source\PSoC5/CAN_1_TX_RX_func.c **** 
 286:.\Generated_Source\PSoC5/CAN_1_TX_RX_func.c ****         return (result);
 287:.\Generated_Source\PSoC5/CAN_1_TX_RX_func.c ****     }
 288:.\Generated_Source\PSoC5/CAN_1_TX_RX_func.c **** #endif /* CAN_1_TX1_FUNC_ENABLE */
 289:.\Generated_Source\PSoC5/CAN_1_TX_RX_func.c **** 
 290:.\Generated_Source\PSoC5/CAN_1_TX_RX_func.c **** 
 291:.\Generated_Source\PSoC5/CAN_1_TX_RX_func.c **** #if (CAN_1_TX2_FUNC_ENABLE)
 292:.\Generated_Source\PSoC5/CAN_1_TX_RX_func.c ****     /*******************************************************************************
 293:.\Generated_Source\PSoC5/CAN_1_TX_RX_func.c ****     * FUNCTION NAME:   CAN_1_SendMsg2
 294:.\Generated_Source\PSoC5/CAN_1_TX_RX_func.c ****     ********************************************************************************
 295:.\Generated_Source\PSoC5/CAN_1_TX_RX_func.c ****     *
 296:.\Generated_Source\PSoC5/CAN_1_TX_RX_func.c ****     * Summary:
 297:.\Generated_Source\PSoC5/CAN_1_TX_RX_func.c ****     *  This function is the entry point to Transmit Message 2. The function checks
 298:.\Generated_Source\PSoC5/CAN_1_TX_RX_func.c ****     *  if mailbox 2 doesn't already have un-transmitted messages waiting for
 299:.\Generated_Source\PSoC5/CAN_1_TX_RX_func.c ****     *  arbitration. If not initiate transmission of the message.
 300:.\Generated_Source\PSoC5/CAN_1_TX_RX_func.c ****     *  Generated only for the Transmit mailbox designed as Full.
 301:.\Generated_Source\PSoC5/CAN_1_TX_RX_func.c ****     *
 302:.\Generated_Source\PSoC5/CAN_1_TX_RX_func.c ****     * Parameters:
 303:.\Generated_Source\PSoC5/CAN_1_TX_RX_func.c ****     *  None.
 304:.\Generated_Source\PSoC5/CAN_1_TX_RX_func.c ****     *
 305:.\Generated_Source\PSoC5/CAN_1_TX_RX_func.c ****     * Return:
 306:.\Generated_Source\PSoC5/CAN_1_TX_RX_func.c ****     *  Indication if Message has been sent.
 307:.\Generated_Source\PSoC5/CAN_1_TX_RX_func.c ****     *   Define                             Description
 308:.\Generated_Source\PSoC5/CAN_1_TX_RX_func.c ****     *    CYRET_SUCCESS                      The function passed successfully
 309:.\Generated_Source\PSoC5/CAN_1_TX_RX_func.c ****     *    CAN_1_FAIL              The function failed
 310:.\Generated_Source\PSoC5/CAN_1_TX_RX_func.c ****     *
 311:.\Generated_Source\PSoC5/CAN_1_TX_RX_func.c ****     *******************************************************************************/
 312:.\Generated_Source\PSoC5/CAN_1_TX_RX_func.c ****     uint8 CAN_1_SendMsg2(void) 
 313:.\Generated_Source\PSoC5/CAN_1_TX_RX_func.c ****     {
 314:.\Generated_Source\PSoC5/CAN_1_TX_RX_func.c ****         uint8 result = CYRET_SUCCESS;
 315:.\Generated_Source\PSoC5/CAN_1_TX_RX_func.c **** 
 316:.\Generated_Source\PSoC5/CAN_1_TX_RX_func.c ****         #if (CY_PSOC3 || CY_PSOC5)
 317:.\Generated_Source\PSoC5/CAN_1_TX_RX_func.c ****             if ((CAN_1_TX[2u].txcmd.byte[0u] & CAN_1_TX_REQUEST_PENDING) != 0u)
 318:.\Generated_Source\PSoC5/CAN_1_TX_RX_func.c ****         #else  /* CY_PSOC4 */
 319:.\Generated_Source\PSoC5/CAN_1_TX_RX_func.c ****             if ((CAN_1_TX_CMD_REG(2u) & CAN_1_TX_REQUEST_PENDING) != 0u)
 320:.\Generated_Source\PSoC5/CAN_1_TX_RX_func.c ****         #endif /* CY_PSOC3 || CY_PSOC5 */
 321:.\Generated_Source\PSoC5/CAN_1_TX_RX_func.c ****             {
 322:.\Generated_Source\PSoC5/CAN_1_TX_RX_func.c ****                 result = CAN_1_FAIL;
 323:.\Generated_Source\PSoC5/CAN_1_TX_RX_func.c ****             }
 324:.\Generated_Source\PSoC5/CAN_1_TX_RX_func.c ****             else
 325:.\Generated_Source\PSoC5/CAN_1_TX_RX_func.c ****             {
 326:.\Generated_Source\PSoC5/CAN_1_TX_RX_func.c ****                 /* `#START MESSAGE_2_TRASMITTED` */
 327:.\Generated_Source\PSoC5/CAN_1_TX_RX_func.c **** 
 328:.\Generated_Source\PSoC5/CAN_1_TX_RX_func.c ****                 /* `#END` */
 329:.\Generated_Source\PSoC5/CAN_1_TX_RX_func.c **** 
 330:.\Generated_Source\PSoC5/CAN_1_TX_RX_func.c ****                 #ifdef CAN_1_SEND_MSG_2_CALLBACK
 331:.\Generated_Source\PSoC5/CAN_1_TX_RX_func.c ****                     CAN_1_SendMsg_2_Callback();
 332:.\Generated_Source\PSoC5/CAN_1_TX_RX_func.c ****                 #endif /* CAN_1_SEND_MSG_2_CALLBACK */
 333:.\Generated_Source\PSoC5/CAN_1_TX_RX_func.c **** 
ARM GAS  C:\Users\plod1602\AppData\Local\Temp\cc6YQjGN.s 			page 13


 334:.\Generated_Source\PSoC5/CAN_1_TX_RX_func.c ****                 CY_SET_REG32(CAN_1_TX_CMD_PTR(2u),
 335:.\Generated_Source\PSoC5/CAN_1_TX_RX_func.c ****                 CY_GET_REG32(CAN_1_TX_CMD_PTR(2u)) | CAN_1_SEND_MESSAGE);
 336:.\Generated_Source\PSoC5/CAN_1_TX_RX_func.c ****             }
 337:.\Generated_Source\PSoC5/CAN_1_TX_RX_func.c **** 
 338:.\Generated_Source\PSoC5/CAN_1_TX_RX_func.c ****         return (result);
 339:.\Generated_Source\PSoC5/CAN_1_TX_RX_func.c ****     }
 340:.\Generated_Source\PSoC5/CAN_1_TX_RX_func.c **** #endif /* CAN_1_TX2_FUNC_ENABLE */
 341:.\Generated_Source\PSoC5/CAN_1_TX_RX_func.c **** 
 342:.\Generated_Source\PSoC5/CAN_1_TX_RX_func.c **** 
 343:.\Generated_Source\PSoC5/CAN_1_TX_RX_func.c **** #if (CAN_1_TX3_FUNC_ENABLE)
 344:.\Generated_Source\PSoC5/CAN_1_TX_RX_func.c ****     /*******************************************************************************
 345:.\Generated_Source\PSoC5/CAN_1_TX_RX_func.c ****     * FUNCTION NAME:   CAN_1_SendMsg3
 346:.\Generated_Source\PSoC5/CAN_1_TX_RX_func.c ****     ********************************************************************************
 347:.\Generated_Source\PSoC5/CAN_1_TX_RX_func.c ****     *
 348:.\Generated_Source\PSoC5/CAN_1_TX_RX_func.c ****     * Summary:
 349:.\Generated_Source\PSoC5/CAN_1_TX_RX_func.c ****     *  This function is the entry point to Transmit Message 3. The function checks
 350:.\Generated_Source\PSoC5/CAN_1_TX_RX_func.c ****     *  if mailbox 3 doesn't already have un-transmitted messages waiting for
 351:.\Generated_Source\PSoC5/CAN_1_TX_RX_func.c ****     *  arbitration. If not initiate transmission of the message.
 352:.\Generated_Source\PSoC5/CAN_1_TX_RX_func.c ****     *  Generated only for the Transmit mailbox designed as Full.
 353:.\Generated_Source\PSoC5/CAN_1_TX_RX_func.c ****     *
 354:.\Generated_Source\PSoC5/CAN_1_TX_RX_func.c ****     * Parameters:
 355:.\Generated_Source\PSoC5/CAN_1_TX_RX_func.c ****     *  None.
 356:.\Generated_Source\PSoC5/CAN_1_TX_RX_func.c ****     *
 357:.\Generated_Source\PSoC5/CAN_1_TX_RX_func.c ****     * Return:
 358:.\Generated_Source\PSoC5/CAN_1_TX_RX_func.c ****     *  Indication if Message has been sent.
 359:.\Generated_Source\PSoC5/CAN_1_TX_RX_func.c ****     *   Define                             Description
 360:.\Generated_Source\PSoC5/CAN_1_TX_RX_func.c ****     *    CYRET_SUCCESS                      The function passed successfully
 361:.\Generated_Source\PSoC5/CAN_1_TX_RX_func.c ****     *    CAN_1_FAIL              The function failed
 362:.\Generated_Source\PSoC5/CAN_1_TX_RX_func.c ****     *
 363:.\Generated_Source\PSoC5/CAN_1_TX_RX_func.c ****     *******************************************************************************/
 364:.\Generated_Source\PSoC5/CAN_1_TX_RX_func.c ****     uint8 CAN_1_SendMsg3(void) 
 365:.\Generated_Source\PSoC5/CAN_1_TX_RX_func.c ****     {
 366:.\Generated_Source\PSoC5/CAN_1_TX_RX_func.c ****         uint8 result = CYRET_SUCCESS;
 367:.\Generated_Source\PSoC5/CAN_1_TX_RX_func.c **** 
 368:.\Generated_Source\PSoC5/CAN_1_TX_RX_func.c ****         #if (CY_PSOC3 || CY_PSOC5)
 369:.\Generated_Source\PSoC5/CAN_1_TX_RX_func.c ****             if ((CAN_1_TX[3u].txcmd.byte[0u] & CAN_1_TX_REQUEST_PENDING) != 0u)
 370:.\Generated_Source\PSoC5/CAN_1_TX_RX_func.c ****         #else  /* CY_PSOC4 */
 371:.\Generated_Source\PSoC5/CAN_1_TX_RX_func.c ****             if ((CAN_1_TX_CMD_REG(3u) & CAN_1_TX_REQUEST_PENDING) != 0u)
 372:.\Generated_Source\PSoC5/CAN_1_TX_RX_func.c ****         #endif /* CY_PSOC3 || CY_PSOC5 */
 373:.\Generated_Source\PSoC5/CAN_1_TX_RX_func.c ****             {
 374:.\Generated_Source\PSoC5/CAN_1_TX_RX_func.c ****                 result = CAN_1_FAIL;
 375:.\Generated_Source\PSoC5/CAN_1_TX_RX_func.c ****             }
 376:.\Generated_Source\PSoC5/CAN_1_TX_RX_func.c ****             else
 377:.\Generated_Source\PSoC5/CAN_1_TX_RX_func.c ****             {
 378:.\Generated_Source\PSoC5/CAN_1_TX_RX_func.c ****                 /* `#START MESSAGE_3_TRASMITTED` */
 379:.\Generated_Source\PSoC5/CAN_1_TX_RX_func.c **** 
 380:.\Generated_Source\PSoC5/CAN_1_TX_RX_func.c ****                 /* `#END` */
 381:.\Generated_Source\PSoC5/CAN_1_TX_RX_func.c **** 
 382:.\Generated_Source\PSoC5/CAN_1_TX_RX_func.c ****                 #ifdef CAN_1_SEND_MSG_3_CALLBACK
 383:.\Generated_Source\PSoC5/CAN_1_TX_RX_func.c ****                     CAN_1_SendMsg_3_Callback();
 384:.\Generated_Source\PSoC5/CAN_1_TX_RX_func.c ****                 #endif /* CAN_1_SEND_MSG_3_CALLBACK */
 385:.\Generated_Source\PSoC5/CAN_1_TX_RX_func.c **** 
 386:.\Generated_Source\PSoC5/CAN_1_TX_RX_func.c ****                 CY_SET_REG32(CAN_1_TX_CMD_PTR(3u),
 387:.\Generated_Source\PSoC5/CAN_1_TX_RX_func.c ****                 CY_GET_REG32(CAN_1_TX_CMD_PTR(3u)) | CAN_1_SEND_MESSAGE);
 388:.\Generated_Source\PSoC5/CAN_1_TX_RX_func.c ****             }
 389:.\Generated_Source\PSoC5/CAN_1_TX_RX_func.c **** 
 390:.\Generated_Source\PSoC5/CAN_1_TX_RX_func.c ****         return (result);
ARM GAS  C:\Users\plod1602\AppData\Local\Temp\cc6YQjGN.s 			page 14


 391:.\Generated_Source\PSoC5/CAN_1_TX_RX_func.c ****     }
 392:.\Generated_Source\PSoC5/CAN_1_TX_RX_func.c **** #endif /* CAN_1_TX3_FUNC_ENABLE */
 393:.\Generated_Source\PSoC5/CAN_1_TX_RX_func.c **** 
 394:.\Generated_Source\PSoC5/CAN_1_TX_RX_func.c **** 
 395:.\Generated_Source\PSoC5/CAN_1_TX_RX_func.c **** #if (CAN_1_TX4_FUNC_ENABLE)
 396:.\Generated_Source\PSoC5/CAN_1_TX_RX_func.c ****     /*******************************************************************************
 397:.\Generated_Source\PSoC5/CAN_1_TX_RX_func.c ****     * FUNCTION NAME:   CAN_1_SendMsg4
 398:.\Generated_Source\PSoC5/CAN_1_TX_RX_func.c ****     ********************************************************************************
 399:.\Generated_Source\PSoC5/CAN_1_TX_RX_func.c ****     *
 400:.\Generated_Source\PSoC5/CAN_1_TX_RX_func.c ****     * Summary:
 401:.\Generated_Source\PSoC5/CAN_1_TX_RX_func.c ****     *  This function is the entry point to Transmit Message 4. The function checks
 402:.\Generated_Source\PSoC5/CAN_1_TX_RX_func.c ****     *  if mailbox 4 doesn't already have un-transmitted messages waiting for
 403:.\Generated_Source\PSoC5/CAN_1_TX_RX_func.c ****     *  arbitration. If not initiate transmission of the message.
 404:.\Generated_Source\PSoC5/CAN_1_TX_RX_func.c ****     *  Generated only for the Transmit mailbox designed as Full.
 405:.\Generated_Source\PSoC5/CAN_1_TX_RX_func.c ****     *
 406:.\Generated_Source\PSoC5/CAN_1_TX_RX_func.c ****     * Parameters:
 407:.\Generated_Source\PSoC5/CAN_1_TX_RX_func.c ****     *  None.
 408:.\Generated_Source\PSoC5/CAN_1_TX_RX_func.c ****     *
 409:.\Generated_Source\PSoC5/CAN_1_TX_RX_func.c ****     * Return:
 410:.\Generated_Source\PSoC5/CAN_1_TX_RX_func.c ****     *  Indication if Message has been sent.
 411:.\Generated_Source\PSoC5/CAN_1_TX_RX_func.c ****     *   Define                             Description
 412:.\Generated_Source\PSoC5/CAN_1_TX_RX_func.c ****     *    CYRET_SUCCESS                      The function passed successfully
 413:.\Generated_Source\PSoC5/CAN_1_TX_RX_func.c ****     *    CAN_1_FAIL              The function failed
 414:.\Generated_Source\PSoC5/CAN_1_TX_RX_func.c ****     *
 415:.\Generated_Source\PSoC5/CAN_1_TX_RX_func.c ****     *******************************************************************************/
 416:.\Generated_Source\PSoC5/CAN_1_TX_RX_func.c ****     uint8 CAN_1_SendMsg4(void) 
 417:.\Generated_Source\PSoC5/CAN_1_TX_RX_func.c ****     {
 418:.\Generated_Source\PSoC5/CAN_1_TX_RX_func.c ****         uint8 result = CYRET_SUCCESS;
 419:.\Generated_Source\PSoC5/CAN_1_TX_RX_func.c **** 
 420:.\Generated_Source\PSoC5/CAN_1_TX_RX_func.c ****         #if (CY_PSOC3 || CY_PSOC5)
 421:.\Generated_Source\PSoC5/CAN_1_TX_RX_func.c ****             if ((CAN_1_TX[4u].txcmd.byte[0u] & CAN_1_TX_REQUEST_PENDING) != 0u)
 422:.\Generated_Source\PSoC5/CAN_1_TX_RX_func.c ****         #else  /* CY_PSOC4 */
 423:.\Generated_Source\PSoC5/CAN_1_TX_RX_func.c ****             if ((CAN_1_TX_CMD_REG(4u) & CAN_1_TX_REQUEST_PENDING) != 0u)
 424:.\Generated_Source\PSoC5/CAN_1_TX_RX_func.c ****         #endif /* CY_PSOC3 || CY_PSOC5 */
 425:.\Generated_Source\PSoC5/CAN_1_TX_RX_func.c ****             {
 426:.\Generated_Source\PSoC5/CAN_1_TX_RX_func.c ****                 result = CAN_1_FAIL;
 427:.\Generated_Source\PSoC5/CAN_1_TX_RX_func.c ****             }
 428:.\Generated_Source\PSoC5/CAN_1_TX_RX_func.c ****             else
 429:.\Generated_Source\PSoC5/CAN_1_TX_RX_func.c ****             {
 430:.\Generated_Source\PSoC5/CAN_1_TX_RX_func.c ****                 /* `#START MESSAGE_4_TRASMITTED` */
 431:.\Generated_Source\PSoC5/CAN_1_TX_RX_func.c **** 
 432:.\Generated_Source\PSoC5/CAN_1_TX_RX_func.c ****                 /* `#END` */
 433:.\Generated_Source\PSoC5/CAN_1_TX_RX_func.c **** 
 434:.\Generated_Source\PSoC5/CAN_1_TX_RX_func.c ****                 #ifdef CAN_1_SEND_MSG_4_CALLBACK
 435:.\Generated_Source\PSoC5/CAN_1_TX_RX_func.c ****                     CAN_1_SendMsg_4_Callback();
 436:.\Generated_Source\PSoC5/CAN_1_TX_RX_func.c ****                 #endif /* CAN_1_SEND_MSG_4_CALLBACK */
 437:.\Generated_Source\PSoC5/CAN_1_TX_RX_func.c **** 
 438:.\Generated_Source\PSoC5/CAN_1_TX_RX_func.c ****                 CY_SET_REG32(CAN_1_TX_CMD_PTR(4u),
 439:.\Generated_Source\PSoC5/CAN_1_TX_RX_func.c ****                 CY_GET_REG32(CAN_1_TX_CMD_PTR(4u)) | CAN_1_SEND_MESSAGE);
 440:.\Generated_Source\PSoC5/CAN_1_TX_RX_func.c ****             }
 441:.\Generated_Source\PSoC5/CAN_1_TX_RX_func.c **** 
 442:.\Generated_Source\PSoC5/CAN_1_TX_RX_func.c ****         return (result);
 443:.\Generated_Source\PSoC5/CAN_1_TX_RX_func.c ****     }
 444:.\Generated_Source\PSoC5/CAN_1_TX_RX_func.c **** #endif /* CAN_1_TX4_FUNC_ENABLE */
 445:.\Generated_Source\PSoC5/CAN_1_TX_RX_func.c **** 
 446:.\Generated_Source\PSoC5/CAN_1_TX_RX_func.c **** 
 447:.\Generated_Source\PSoC5/CAN_1_TX_RX_func.c **** #if (CAN_1_TX5_FUNC_ENABLE)
ARM GAS  C:\Users\plod1602\AppData\Local\Temp\cc6YQjGN.s 			page 15


 448:.\Generated_Source\PSoC5/CAN_1_TX_RX_func.c ****     /*******************************************************************************
 449:.\Generated_Source\PSoC5/CAN_1_TX_RX_func.c ****     * FUNCTION NAME:   CAN_1_SendMsg5
 450:.\Generated_Source\PSoC5/CAN_1_TX_RX_func.c ****     ********************************************************************************
 451:.\Generated_Source\PSoC5/CAN_1_TX_RX_func.c ****     *
 452:.\Generated_Source\PSoC5/CAN_1_TX_RX_func.c ****     * Summary:
 453:.\Generated_Source\PSoC5/CAN_1_TX_RX_func.c ****     *  This function is the entry point to Transmit Message 5. The function checks
 454:.\Generated_Source\PSoC5/CAN_1_TX_RX_func.c ****     *  if mailbox 5 doesn't already have un-transmitted messages waiting for
 455:.\Generated_Source\PSoC5/CAN_1_TX_RX_func.c ****     *  arbitration. If not initiate transmission of the message.
 456:.\Generated_Source\PSoC5/CAN_1_TX_RX_func.c ****     *  Generated only for the Transmit mailbox designed as Full.
 457:.\Generated_Source\PSoC5/CAN_1_TX_RX_func.c ****     *
 458:.\Generated_Source\PSoC5/CAN_1_TX_RX_func.c ****     * Parameters:
 459:.\Generated_Source\PSoC5/CAN_1_TX_RX_func.c ****     *  None.
 460:.\Generated_Source\PSoC5/CAN_1_TX_RX_func.c ****     *
 461:.\Generated_Source\PSoC5/CAN_1_TX_RX_func.c ****     * Return:
 462:.\Generated_Source\PSoC5/CAN_1_TX_RX_func.c ****     *  Indication if Message has been sent.
 463:.\Generated_Source\PSoC5/CAN_1_TX_RX_func.c ****     *   Define                             Description
 464:.\Generated_Source\PSoC5/CAN_1_TX_RX_func.c ****     *    CYRET_SUCCESS                      The function passed successfully
 465:.\Generated_Source\PSoC5/CAN_1_TX_RX_func.c ****     *    CAN_1_FAIL              The function failed
 466:.\Generated_Source\PSoC5/CAN_1_TX_RX_func.c ****     *
 467:.\Generated_Source\PSoC5/CAN_1_TX_RX_func.c ****     *******************************************************************************/
 468:.\Generated_Source\PSoC5/CAN_1_TX_RX_func.c ****     uint8 CAN_1_SendMsg5(void) 
 469:.\Generated_Source\PSoC5/CAN_1_TX_RX_func.c ****     {
 470:.\Generated_Source\PSoC5/CAN_1_TX_RX_func.c ****         uint8 result = CYRET_SUCCESS;
 471:.\Generated_Source\PSoC5/CAN_1_TX_RX_func.c **** 
 472:.\Generated_Source\PSoC5/CAN_1_TX_RX_func.c ****         #if (CY_PSOC3 || CY_PSOC5)
 473:.\Generated_Source\PSoC5/CAN_1_TX_RX_func.c ****             if ((CAN_1_TX[5u].txcmd.byte[0u] & CAN_1_TX_REQUEST_PENDING) != 0u)
 474:.\Generated_Source\PSoC5/CAN_1_TX_RX_func.c ****         #else  /* CY_PSOC4 */
 475:.\Generated_Source\PSoC5/CAN_1_TX_RX_func.c ****             if ((CAN_1_TX_CMD_REG(5u) & CAN_1_TX_REQUEST_PENDING) != 0u)
 476:.\Generated_Source\PSoC5/CAN_1_TX_RX_func.c ****         #endif /* CY_PSOC3 || CY_PSOC5 */
 477:.\Generated_Source\PSoC5/CAN_1_TX_RX_func.c ****             {
 478:.\Generated_Source\PSoC5/CAN_1_TX_RX_func.c ****                 result = CAN_1_FAIL;
 479:.\Generated_Source\PSoC5/CAN_1_TX_RX_func.c ****             }
 480:.\Generated_Source\PSoC5/CAN_1_TX_RX_func.c ****             else
 481:.\Generated_Source\PSoC5/CAN_1_TX_RX_func.c ****             {
 482:.\Generated_Source\PSoC5/CAN_1_TX_RX_func.c ****                 /* `#START MESSAGE_5_TRASMITTED` */
 483:.\Generated_Source\PSoC5/CAN_1_TX_RX_func.c **** 
 484:.\Generated_Source\PSoC5/CAN_1_TX_RX_func.c ****                 /* `#END` */
 485:.\Generated_Source\PSoC5/CAN_1_TX_RX_func.c **** 
 486:.\Generated_Source\PSoC5/CAN_1_TX_RX_func.c ****                 #ifdef CAN_1_SEND_MSG_5_CALLBACK
 487:.\Generated_Source\PSoC5/CAN_1_TX_RX_func.c ****                     CAN_1_SendMsg_5_Callback();
 488:.\Generated_Source\PSoC5/CAN_1_TX_RX_func.c ****                 #endif /* CAN_1_SEND_MSG_5_CALLBACK */
 489:.\Generated_Source\PSoC5/CAN_1_TX_RX_func.c **** 
 490:.\Generated_Source\PSoC5/CAN_1_TX_RX_func.c ****                 CY_SET_REG32(CAN_1_TX_CMD_PTR(5u),
 491:.\Generated_Source\PSoC5/CAN_1_TX_RX_func.c ****                 CY_GET_REG32(CAN_1_TX_CMD_PTR(5u)) | CAN_1_SEND_MESSAGE);
 492:.\Generated_Source\PSoC5/CAN_1_TX_RX_func.c ****             }
 493:.\Generated_Source\PSoC5/CAN_1_TX_RX_func.c **** 
 494:.\Generated_Source\PSoC5/CAN_1_TX_RX_func.c ****         return (result);
 495:.\Generated_Source\PSoC5/CAN_1_TX_RX_func.c ****     }
 496:.\Generated_Source\PSoC5/CAN_1_TX_RX_func.c **** #endif /* CAN_1_TX5_FUNC_ENABLE */
 497:.\Generated_Source\PSoC5/CAN_1_TX_RX_func.c **** 
 498:.\Generated_Source\PSoC5/CAN_1_TX_RX_func.c **** 
 499:.\Generated_Source\PSoC5/CAN_1_TX_RX_func.c **** #if (CAN_1_TX6_FUNC_ENABLE)
 500:.\Generated_Source\PSoC5/CAN_1_TX_RX_func.c ****     /*******************************************************************************
 501:.\Generated_Source\PSoC5/CAN_1_TX_RX_func.c ****     * FUNCTION NAME:   CAN_1_SendMsg6
 502:.\Generated_Source\PSoC5/CAN_1_TX_RX_func.c ****     ********************************************************************************
 503:.\Generated_Source\PSoC5/CAN_1_TX_RX_func.c ****     *
 504:.\Generated_Source\PSoC5/CAN_1_TX_RX_func.c ****     * Summary:
ARM GAS  C:\Users\plod1602\AppData\Local\Temp\cc6YQjGN.s 			page 16


 505:.\Generated_Source\PSoC5/CAN_1_TX_RX_func.c ****     *  This function is the entry point to Transmit Message 6. The function checks
 506:.\Generated_Source\PSoC5/CAN_1_TX_RX_func.c ****     *  if mailbox 6 doesn't already have un-transmitted messages waiting for
 507:.\Generated_Source\PSoC5/CAN_1_TX_RX_func.c ****     *  arbitration. If not initiate transmission of the message.
 508:.\Generated_Source\PSoC5/CAN_1_TX_RX_func.c ****     *  Generated only for the Transmit mailbox designed as Full.
 509:.\Generated_Source\PSoC5/CAN_1_TX_RX_func.c ****     *
 510:.\Generated_Source\PSoC5/CAN_1_TX_RX_func.c ****     * Parameters:
 511:.\Generated_Source\PSoC5/CAN_1_TX_RX_func.c ****     *  None.
 512:.\Generated_Source\PSoC5/CAN_1_TX_RX_func.c ****     *
 513:.\Generated_Source\PSoC5/CAN_1_TX_RX_func.c ****     * Return:
 514:.\Generated_Source\PSoC5/CAN_1_TX_RX_func.c ****     *  Indication if Message has been sent.
 515:.\Generated_Source\PSoC5/CAN_1_TX_RX_func.c ****     *   Define                             Description
 516:.\Generated_Source\PSoC5/CAN_1_TX_RX_func.c ****     *    CYRET_SUCCESS                      The function passed successfully
 517:.\Generated_Source\PSoC5/CAN_1_TX_RX_func.c ****     *    CAN_1_FAIL              The function failed
 518:.\Generated_Source\PSoC5/CAN_1_TX_RX_func.c ****     *
 519:.\Generated_Source\PSoC5/CAN_1_TX_RX_func.c ****     *******************************************************************************/
 520:.\Generated_Source\PSoC5/CAN_1_TX_RX_func.c ****     uint8 CAN_1_SendMsg6(void) 
 521:.\Generated_Source\PSoC5/CAN_1_TX_RX_func.c ****     {
 522:.\Generated_Source\PSoC5/CAN_1_TX_RX_func.c ****         uint8 result = CYRET_SUCCESS;
 523:.\Generated_Source\PSoC5/CAN_1_TX_RX_func.c **** 
 524:.\Generated_Source\PSoC5/CAN_1_TX_RX_func.c ****         #if (CY_PSOC3 || CY_PSOC5)
 525:.\Generated_Source\PSoC5/CAN_1_TX_RX_func.c ****             if ((CAN_1_TX[6u].txcmd.byte[0u] & CAN_1_TX_REQUEST_PENDING) != 0u)
 526:.\Generated_Source\PSoC5/CAN_1_TX_RX_func.c ****         #else  /* CY_PSOC4 */
 527:.\Generated_Source\PSoC5/CAN_1_TX_RX_func.c ****             if ((CAN_1_TX_CMD_REG(6u) & CAN_1_TX_REQUEST_PENDING) != 0u)
 528:.\Generated_Source\PSoC5/CAN_1_TX_RX_func.c ****         #endif /* CY_PSOC3 || CY_PSOC5 */
 529:.\Generated_Source\PSoC5/CAN_1_TX_RX_func.c ****             {
 530:.\Generated_Source\PSoC5/CAN_1_TX_RX_func.c ****                 result = CAN_1_FAIL;
 531:.\Generated_Source\PSoC5/CAN_1_TX_RX_func.c ****             }
 532:.\Generated_Source\PSoC5/CAN_1_TX_RX_func.c ****             else
 533:.\Generated_Source\PSoC5/CAN_1_TX_RX_func.c ****             {
 534:.\Generated_Source\PSoC5/CAN_1_TX_RX_func.c ****                 /* `#START MESSAGE_6_TRASMITTED` */
 535:.\Generated_Source\PSoC5/CAN_1_TX_RX_func.c **** 
 536:.\Generated_Source\PSoC5/CAN_1_TX_RX_func.c ****                 /* `#END` */
 537:.\Generated_Source\PSoC5/CAN_1_TX_RX_func.c **** 
 538:.\Generated_Source\PSoC5/CAN_1_TX_RX_func.c ****                 #ifdef CAN_1_SEND_MSG_6_CALLBACK
 539:.\Generated_Source\PSoC5/CAN_1_TX_RX_func.c ****                     CAN_1_SendMsg_6_Callback();
 540:.\Generated_Source\PSoC5/CAN_1_TX_RX_func.c ****                 #endif /* CAN_1_SEND_MSG_6_CALLBACK */
 541:.\Generated_Source\PSoC5/CAN_1_TX_RX_func.c **** 
 542:.\Generated_Source\PSoC5/CAN_1_TX_RX_func.c ****                 CY_SET_REG32(CAN_1_TX_CMD_PTR(6u),
 543:.\Generated_Source\PSoC5/CAN_1_TX_RX_func.c ****                 CY_GET_REG32(CAN_1_TX_CMD_PTR(6u)) | CAN_1_SEND_MESSAGE);
 544:.\Generated_Source\PSoC5/CAN_1_TX_RX_func.c ****             }
 545:.\Generated_Source\PSoC5/CAN_1_TX_RX_func.c **** 
 546:.\Generated_Source\PSoC5/CAN_1_TX_RX_func.c ****         return (result);
 547:.\Generated_Source\PSoC5/CAN_1_TX_RX_func.c ****     }
 548:.\Generated_Source\PSoC5/CAN_1_TX_RX_func.c **** #endif /* CAN_1_TX6_FUNC_ENABLE */
 549:.\Generated_Source\PSoC5/CAN_1_TX_RX_func.c **** 
 550:.\Generated_Source\PSoC5/CAN_1_TX_RX_func.c **** 
 551:.\Generated_Source\PSoC5/CAN_1_TX_RX_func.c **** #if (CAN_1_TX7_FUNC_ENABLE)
 552:.\Generated_Source\PSoC5/CAN_1_TX_RX_func.c ****     /*******************************************************************************
 553:.\Generated_Source\PSoC5/CAN_1_TX_RX_func.c ****     * FUNCTION NAME:   CAN_1_SendMsg7)
 554:.\Generated_Source\PSoC5/CAN_1_TX_RX_func.c ****     ********************************************************************************
 555:.\Generated_Source\PSoC5/CAN_1_TX_RX_func.c ****     *
 556:.\Generated_Source\PSoC5/CAN_1_TX_RX_func.c ****     * Summary:
 557:.\Generated_Source\PSoC5/CAN_1_TX_RX_func.c ****     *  This function is the entry point to Transmit Message 7. The function checks
 558:.\Generated_Source\PSoC5/CAN_1_TX_RX_func.c ****     *  if mailbox 7 doesn't already have un-transmitted messages waiting for
 559:.\Generated_Source\PSoC5/CAN_1_TX_RX_func.c ****     *  arbitration. If not initiate transmission of the message.
 560:.\Generated_Source\PSoC5/CAN_1_TX_RX_func.c ****     *  Generated only for the Transmit mailbox designed as Full.
 561:.\Generated_Source\PSoC5/CAN_1_TX_RX_func.c ****     *
ARM GAS  C:\Users\plod1602\AppData\Local\Temp\cc6YQjGN.s 			page 17


 562:.\Generated_Source\PSoC5/CAN_1_TX_RX_func.c ****     * Parameters:
 563:.\Generated_Source\PSoC5/CAN_1_TX_RX_func.c ****     *  None.
 564:.\Generated_Source\PSoC5/CAN_1_TX_RX_func.c ****     *
 565:.\Generated_Source\PSoC5/CAN_1_TX_RX_func.c ****     * Return:
 566:.\Generated_Source\PSoC5/CAN_1_TX_RX_func.c ****     *  Indication if Message has been sent.
 567:.\Generated_Source\PSoC5/CAN_1_TX_RX_func.c ****     *   Define                             Description
 568:.\Generated_Source\PSoC5/CAN_1_TX_RX_func.c ****     *    CYRET_SUCCESS                      The function passed successfully
 569:.\Generated_Source\PSoC5/CAN_1_TX_RX_func.c ****     *    CAN_1_FAIL              The function failed
 570:.\Generated_Source\PSoC5/CAN_1_TX_RX_func.c ****     *
 571:.\Generated_Source\PSoC5/CAN_1_TX_RX_func.c ****     *******************************************************************************/
 572:.\Generated_Source\PSoC5/CAN_1_TX_RX_func.c ****     uint8 CAN_1_SendMsg7(void) 
 573:.\Generated_Source\PSoC5/CAN_1_TX_RX_func.c ****     {
 574:.\Generated_Source\PSoC5/CAN_1_TX_RX_func.c ****         uint8 result = CYRET_SUCCESS;
 575:.\Generated_Source\PSoC5/CAN_1_TX_RX_func.c **** 
 576:.\Generated_Source\PSoC5/CAN_1_TX_RX_func.c ****         #if (CY_PSOC3 || CY_PSOC5)
 577:.\Generated_Source\PSoC5/CAN_1_TX_RX_func.c ****             if ((CAN_1_TX[7u].txcmd.byte[0u] & CAN_1_TX_REQUEST_PENDING) != 0u)
 578:.\Generated_Source\PSoC5/CAN_1_TX_RX_func.c ****         #else  /* CY_PSOC4 */
 579:.\Generated_Source\PSoC5/CAN_1_TX_RX_func.c ****             if ((CAN_1_TX_CMD_REG(7u) & CAN_1_TX_REQUEST_PENDING) != 0u)
 580:.\Generated_Source\PSoC5/CAN_1_TX_RX_func.c ****         #endif /* CY_PSOC3 || CY_PSOC5 */
 581:.\Generated_Source\PSoC5/CAN_1_TX_RX_func.c ****             {
 582:.\Generated_Source\PSoC5/CAN_1_TX_RX_func.c ****                 result = CAN_1_FAIL;
 583:.\Generated_Source\PSoC5/CAN_1_TX_RX_func.c ****             }
 584:.\Generated_Source\PSoC5/CAN_1_TX_RX_func.c ****             else
 585:.\Generated_Source\PSoC5/CAN_1_TX_RX_func.c ****             {
 586:.\Generated_Source\PSoC5/CAN_1_TX_RX_func.c ****                 /* `#START MESSAGE_7_TRASMITTED` */
 587:.\Generated_Source\PSoC5/CAN_1_TX_RX_func.c **** 
 588:.\Generated_Source\PSoC5/CAN_1_TX_RX_func.c ****                 /* `#END` */
 589:.\Generated_Source\PSoC5/CAN_1_TX_RX_func.c **** 
 590:.\Generated_Source\PSoC5/CAN_1_TX_RX_func.c ****                 #ifdef CAN_1_SEND_MSG_7_CALLBACK
 591:.\Generated_Source\PSoC5/CAN_1_TX_RX_func.c ****                     CAN_1_SendMsg_7_Callback();
 592:.\Generated_Source\PSoC5/CAN_1_TX_RX_func.c ****                 #endif /* CAN_1_SEND_MSG_7_CALLBACK */
 593:.\Generated_Source\PSoC5/CAN_1_TX_RX_func.c **** 
 594:.\Generated_Source\PSoC5/CAN_1_TX_RX_func.c ****                 CY_SET_REG32(CAN_1_TX_CMD_PTR(7u),
 595:.\Generated_Source\PSoC5/CAN_1_TX_RX_func.c ****                 CY_GET_REG32(CAN_1_TX_CMD_PTR(7u)) | CAN_1_SEND_MESSAGE);
 596:.\Generated_Source\PSoC5/CAN_1_TX_RX_func.c ****             }
 597:.\Generated_Source\PSoC5/CAN_1_TX_RX_func.c **** 
 598:.\Generated_Source\PSoC5/CAN_1_TX_RX_func.c ****         return (result);
 599:.\Generated_Source\PSoC5/CAN_1_TX_RX_func.c ****     }
 600:.\Generated_Source\PSoC5/CAN_1_TX_RX_func.c **** #endif /* CAN_1_TX7_FUNC_ENABLE */
 601:.\Generated_Source\PSoC5/CAN_1_TX_RX_func.c **** 
 602:.\Generated_Source\PSoC5/CAN_1_TX_RX_func.c **** 
 603:.\Generated_Source\PSoC5/CAN_1_TX_RX_func.c **** /*******************************************************************************
 604:.\Generated_Source\PSoC5/CAN_1_TX_RX_func.c **** * FUNCTION NAME:   CAN_1_ReceiveMsg
 605:.\Generated_Source\PSoC5/CAN_1_TX_RX_func.c **** ********************************************************************************
 606:.\Generated_Source\PSoC5/CAN_1_TX_RX_func.c **** *
 607:.\Generated_Source\PSoC5/CAN_1_TX_RX_func.c **** * Summary:
 608:.\Generated_Source\PSoC5/CAN_1_TX_RX_func.c **** *  This function is the entry point to Receive Message Interrupt for Basic
 609:.\Generated_Source\PSoC5/CAN_1_TX_RX_func.c **** *  mailboxes. Clears the Receive particular Message interrupt flag. Generated
 610:.\Generated_Source\PSoC5/CAN_1_TX_RX_func.c **** *  only if one of the Receive mailboxes is designed as Basic.
 611:.\Generated_Source\PSoC5/CAN_1_TX_RX_func.c **** *
 612:.\Generated_Source\PSoC5/CAN_1_TX_RX_func.c **** * Parameters:
 613:.\Generated_Source\PSoC5/CAN_1_TX_RX_func.c **** *  rxMailbox: The mailbox number that trig Receive Message Interrupt.
 614:.\Generated_Source\PSoC5/CAN_1_TX_RX_func.c **** *
 615:.\Generated_Source\PSoC5/CAN_1_TX_RX_func.c **** * Return:
 616:.\Generated_Source\PSoC5/CAN_1_TX_RX_func.c **** *  None.
 617:.\Generated_Source\PSoC5/CAN_1_TX_RX_func.c **** *
 618:.\Generated_Source\PSoC5/CAN_1_TX_RX_func.c **** * Reentrant:
ARM GAS  C:\Users\plod1602\AppData\Local\Temp\cc6YQjGN.s 			page 18


 619:.\Generated_Source\PSoC5/CAN_1_TX_RX_func.c **** *  Depends on the Customer code.
 620:.\Generated_Source\PSoC5/CAN_1_TX_RX_func.c **** *
 621:.\Generated_Source\PSoC5/CAN_1_TX_RX_func.c **** *******************************************************************************/
 622:.\Generated_Source\PSoC5/CAN_1_TX_RX_func.c **** void CAN_1_ReceiveMsg(uint8 rxMailbox) 
 623:.\Generated_Source\PSoC5/CAN_1_TX_RX_func.c **** {
 346              		.loc 1 623 0
 347              		.cfi_startproc
 348              		@ args = 0, pretend = 0, frame = 8
 349              		@ frame_needed = 1, uses_anonymous_args = 0
 350              		@ link register save eliminated.
 351 0000 80B4     		push	{r7}
 352              		.cfi_def_cfa_offset 4
 353              		.cfi_offset 7, -4
 354 0002 83B0     		sub	sp, sp, #12
 355              		.cfi_def_cfa_offset 16
 356 0004 00AF     		add	r7, sp, #0
 357              		.cfi_def_cfa_register 7
 358 0006 0346     		mov	r3, r0
 359 0008 FB71     		strb	r3, [r7, #7]
 624:.\Generated_Source\PSoC5/CAN_1_TX_RX_func.c ****     #if (CY_PSOC3 || CY_PSOC5)
 625:.\Generated_Source\PSoC5/CAN_1_TX_RX_func.c ****         if ((CAN_1_RX[rxMailbox].rxcmd.byte[0u] & CAN_1_RX_ACK_MSG) != 0u)
 360              		.loc 1 625 0
 361 000a FB79     		ldrb	r3, [r7, #7]	@ zero_extendqisi2
 362 000c 5A01     		lsls	r2, r3, #5
 363 000e 0D4B     		ldr	r3, .L31
 364 0010 1344     		add	r3, r3, r2
 365 0012 1B78     		ldrb	r3, [r3]
 366 0014 DBB2     		uxtb	r3, r3
 367 0016 03F00103 		and	r3, r3, #1
 368 001a 002B     		cmp	r3, #0
 369 001c 0DD0     		beq	.L29
 626:.\Generated_Source\PSoC5/CAN_1_TX_RX_func.c ****     #else  /* CY_PSOC4 */
 627:.\Generated_Source\PSoC5/CAN_1_TX_RX_func.c ****         if ((CAN_1_RX_CMD_REG(rxMailbox) & CAN_1_RX_ACK_MSG) != 0u)
 628:.\Generated_Source\PSoC5/CAN_1_TX_RX_func.c ****     #endif /* CY_PSOC3 || CY_PSOC5 */
 629:.\Generated_Source\PSoC5/CAN_1_TX_RX_func.c ****         {
 630:.\Generated_Source\PSoC5/CAN_1_TX_RX_func.c ****             /* `#START MESSAGE_BASIC_RECEIVED` */
 631:.\Generated_Source\PSoC5/CAN_1_TX_RX_func.c **** 
 632:.\Generated_Source\PSoC5/CAN_1_TX_RX_func.c ****             /* `#END` */
 633:.\Generated_Source\PSoC5/CAN_1_TX_RX_func.c **** 
 634:.\Generated_Source\PSoC5/CAN_1_TX_RX_func.c ****             #ifdef CAN_1_RECEIVE_MSG_CALLBACK
 635:.\Generated_Source\PSoC5/CAN_1_TX_RX_func.c ****                 CAN_1_ReceiveMsg_Callback();
 636:.\Generated_Source\PSoC5/CAN_1_TX_RX_func.c ****             #endif /* CAN_1_RECEIVE_MSG_CALLBACK */
 637:.\Generated_Source\PSoC5/CAN_1_TX_RX_func.c **** 
 638:.\Generated_Source\PSoC5/CAN_1_TX_RX_func.c ****             #if (CY_PSOC3 || CY_PSOC5)
 639:.\Generated_Source\PSoC5/CAN_1_TX_RX_func.c ****                 CAN_1_RX[rxMailbox].rxcmd.byte[0u] |= CAN_1_RX_ACK_MSG;
 370              		.loc 1 639 0
 371 001e FB79     		ldrb	r3, [r7, #7]	@ zero_extendqisi2
 372 0020 5A01     		lsls	r2, r3, #5
 373 0022 084B     		ldr	r3, .L31
 374 0024 1344     		add	r3, r3, r2
 375 0026 FA79     		ldrb	r2, [r7, #7]	@ zero_extendqisi2
 376 0028 5101     		lsls	r1, r2, #5
 377 002a 064A     		ldr	r2, .L31
 378 002c 0A44     		add	r2, r2, r1
 379 002e 1278     		ldrb	r2, [r2]
 380 0030 D2B2     		uxtb	r2, r2
 381 0032 42F00102 		orr	r2, r2, #1
ARM GAS  C:\Users\plod1602\AppData\Local\Temp\cc6YQjGN.s 			page 19


 382 0036 D2B2     		uxtb	r2, r2
 383 0038 1A70     		strb	r2, [r3]
 384              	.L29:
 640:.\Generated_Source\PSoC5/CAN_1_TX_RX_func.c ****             #else  /* CY_PSOC4 */
 641:.\Generated_Source\PSoC5/CAN_1_TX_RX_func.c ****                 CAN_1_RX_CMD_REG(rxMailbox) |= CAN_1_RX_ACK_MSG;
 642:.\Generated_Source\PSoC5/CAN_1_TX_RX_func.c ****             #endif /* CY_PSOC3 || CY_PSOC5 */
 643:.\Generated_Source\PSoC5/CAN_1_TX_RX_func.c ****         }
 644:.\Generated_Source\PSoC5/CAN_1_TX_RX_func.c **** }
 385              		.loc 1 644 0
 386 003a 0C37     		adds	r7, r7, #12
 387              		.cfi_def_cfa_offset 4
 388 003c BD46     		mov	sp, r7
 389              		.cfi_def_cfa_register 13
 390              		@ sp needed
 391 003e 5DF8047B 		ldr	r7, [sp], #4
 392              		.cfi_restore 7
 393              		.cfi_def_cfa_offset 0
 394 0042 7047     		bx	lr
 395              	.L32:
 396              		.align	2
 397              	.L31:
 398 0044 A0A00040 		.word	1073782944
 399              		.cfi_endproc
 400              	.LFE58:
 401              		.size	CAN_1_ReceiveMsg, .-CAN_1_ReceiveMsg
 402              		.section	.text.CAN_1_ReceiveMsg0,"ax",%progbits
 403              		.align	2
 404              		.global	CAN_1_ReceiveMsg0
 405              		.thumb
 406              		.thumb_func
 407              		.type	CAN_1_ReceiveMsg0, %function
 408              	CAN_1_ReceiveMsg0:
 409              	.LFB59:
 645:.\Generated_Source\PSoC5/CAN_1_TX_RX_func.c **** 
 646:.\Generated_Source\PSoC5/CAN_1_TX_RX_func.c **** 
 647:.\Generated_Source\PSoC5/CAN_1_TX_RX_func.c **** #if (CAN_1_RX0_FUNC_ENABLE)
 648:.\Generated_Source\PSoC5/CAN_1_TX_RX_func.c ****     /*******************************************************************************
 649:.\Generated_Source\PSoC5/CAN_1_TX_RX_func.c ****     * FUNCTION NAME:   CAN_1_ReceiveMsg0
 650:.\Generated_Source\PSoC5/CAN_1_TX_RX_func.c ****     ********************************************************************************
 651:.\Generated_Source\PSoC5/CAN_1_TX_RX_func.c ****     *
 652:.\Generated_Source\PSoC5/CAN_1_TX_RX_func.c ****     * Summary:
 653:.\Generated_Source\PSoC5/CAN_1_TX_RX_func.c ****     *  This function is the entry point to Receive Message 0 Interrupt. Clears the
 654:.\Generated_Source\PSoC5/CAN_1_TX_RX_func.c ****     *  Receive Message 0 interrupt flag. Generated only for the Receive mailbox
 655:.\Generated_Source\PSoC5/CAN_1_TX_RX_func.c ****     *  designed as Full.
 656:.\Generated_Source\PSoC5/CAN_1_TX_RX_func.c ****     *
 657:.\Generated_Source\PSoC5/CAN_1_TX_RX_func.c ****     * Parameters:
 658:.\Generated_Source\PSoC5/CAN_1_TX_RX_func.c ****     *  None.
 659:.\Generated_Source\PSoC5/CAN_1_TX_RX_func.c ****     *
 660:.\Generated_Source\PSoC5/CAN_1_TX_RX_func.c ****     * Return:
 661:.\Generated_Source\PSoC5/CAN_1_TX_RX_func.c ****     *  None.
 662:.\Generated_Source\PSoC5/CAN_1_TX_RX_func.c ****     *
 663:.\Generated_Source\PSoC5/CAN_1_TX_RX_func.c ****     * Reentrant:
 664:.\Generated_Source\PSoC5/CAN_1_TX_RX_func.c ****     *  Depends on the Customer code.
 665:.\Generated_Source\PSoC5/CAN_1_TX_RX_func.c ****     *
 666:.\Generated_Source\PSoC5/CAN_1_TX_RX_func.c ****     *******************************************************************************/
 667:.\Generated_Source\PSoC5/CAN_1_TX_RX_func.c ****     void CAN_1_ReceiveMsg0(void) 
 668:.\Generated_Source\PSoC5/CAN_1_TX_RX_func.c ****     {
ARM GAS  C:\Users\plod1602\AppData\Local\Temp\cc6YQjGN.s 			page 20


 410              		.loc 1 668 0
 411              		.cfi_startproc
 412              		@ args = 0, pretend = 0, frame = 8
 413              		@ frame_needed = 1, uses_anonymous_args = 0
 414              		@ link register save eliminated.
 415 0000 80B4     		push	{r7}
 416              		.cfi_def_cfa_offset 4
 417              		.cfi_offset 7, -4
 418 0002 83B0     		sub	sp, sp, #12
 419              		.cfi_def_cfa_offset 16
 420 0004 00AF     		add	r7, sp, #0
 421              		.cfi_def_cfa_register 7
 669:.\Generated_Source\PSoC5/CAN_1_TX_RX_func.c ****         /* `#START MESSAGE_0_RECEIVED` */
 670:.\Generated_Source\PSoC5/CAN_1_TX_RX_func.c ****         
 671:.\Generated_Source\PSoC5/CAN_1_TX_RX_func.c ****         int i;
 672:.\Generated_Source\PSoC5/CAN_1_TX_RX_func.c ****         
 673:.\Generated_Source\PSoC5/CAN_1_TX_RX_func.c ****         // Loading the data length and the ID of the incomming message.
 674:.\Generated_Source\PSoC5/CAN_1_TX_RX_func.c ****         receivedMsgs[msgToBeStoredIndex].DLC = CAN_1_GET_DLC(0);
 422              		.loc 1 674 0
 423 0006 354B     		ldr	r3, .L42
 424 0008 1B68     		ldr	r3, [r3]
 425 000a 354A     		ldr	r2, .L42+4
 426 000c 9278     		ldrb	r2, [r2, #2]
 427 000e D2B2     		uxtb	r2, r2
 428 0010 02F00F02 		and	r2, r2, #15
 429 0014 D1B2     		uxtb	r1, r2
 430 0016 334A     		ldr	r2, .L42+8
 431 0018 1B01     		lsls	r3, r3, #4
 432 001a 1344     		add	r3, r3, r2
 433 001c 0833     		adds	r3, r3, #8
 434 001e 0A46     		mov	r2, r1
 435 0020 1A70     		strb	r2, [r3]
 675:.\Generated_Source\PSoC5/CAN_1_TX_RX_func.c ****         receivedMsgs[msgToBeStoredIndex].CAN_ID = CAN_1_GET_RX_ID(0);
 436              		.loc 1 675 0
 437 0022 2E4B     		ldr	r3, .L42
 438 0024 1A68     		ldr	r2, [r3]
 439 0026 2E4B     		ldr	r3, .L42+4
 440 0028 9B78     		ldrb	r3, [r3, #2]
 441 002a DBB2     		uxtb	r3, r3
 442 002c 03F01003 		and	r3, r3, #16
 443 0030 1B11     		asrs	r3, r3, #4
 444 0032 002B     		cmp	r3, #0
 445 0034 03D0     		beq	.L34
 446              		.loc 1 675 0 is_stmt 0 discriminator 1
 447 0036 2C4B     		ldr	r3, .L42+12
 448 0038 1B68     		ldr	r3, [r3]
 449 003a DB08     		lsrs	r3, r3, #3
 450 003c 02E0     		b	.L35
 451              	.L34:
 452              		.loc 1 675 0 discriminator 2
 453 003e 2A4B     		ldr	r3, .L42+12
 454 0040 1B68     		ldr	r3, [r3]
 455 0042 5B0D     		lsrs	r3, r3, #21
 456              	.L35:
 457              		.loc 1 675 0 discriminator 4
 458 0044 2749     		ldr	r1, .L42+8
 459 0046 1201     		lsls	r2, r2, #4
ARM GAS  C:\Users\plod1602\AppData\Local\Temp\cc6YQjGN.s 			page 21


 460 0048 0A44     		add	r2, r2, r1
 461 004a 0832     		adds	r2, r2, #8
 462 004c 5360     		str	r3, [r2, #4]
 676:.\Generated_Source\PSoC5/CAN_1_TX_RX_func.c ****         
 677:.\Generated_Source\PSoC5/CAN_1_TX_RX_func.c ****         
 678:.\Generated_Source\PSoC5/CAN_1_TX_RX_func.c ****         // Get pay load and save it to the receivedMessages table.
 679:.\Generated_Source\PSoC5/CAN_1_TX_RX_func.c ****         for (i=0; i<receivedMsgs[msgToBeStoredIndex].DLC; i++)
 463              		.loc 1 679 0 is_stmt 1 discriminator 4
 464 004e 0023     		movs	r3, #0
 465 0050 7B60     		str	r3, [r7, #4]
 466 0052 19E0     		b	.L36
 467              	.L39:
 680:.\Generated_Source\PSoC5/CAN_1_TX_RX_func.c ****         {
 681:.\Generated_Source\PSoC5/CAN_1_TX_RX_func.c ****             receivedMsgs[msgToBeStoredIndex].msgBytes.byte[i] = (uint8)CAN_1_RX_DATA_BYTE(0,i); // 
 468              		.loc 1 681 0
 469 0054 214B     		ldr	r3, .L42
 470 0056 1A68     		ldr	r2, [r3]
 471 0058 2149     		ldr	r1, .L42+4
 472 005a 7B68     		ldr	r3, [r7, #4]
 473 005c 032B     		cmp	r3, #3
 474 005e 03D9     		bls	.L37
 475              		.loc 1 681 0 is_stmt 0 discriminator 1
 476 0060 7B68     		ldr	r3, [r7, #4]
 477 0062 C3F10B03 		rsb	r3, r3, #11
 478 0066 02E0     		b	.L38
 479              	.L37:
 480              		.loc 1 681 0 discriminator 2
 481 0068 7B68     		ldr	r3, [r7, #4]
 482 006a C3F10303 		rsb	r3, r3, #3
 483              	.L38:
 484              		.loc 1 681 0 discriminator 4
 485 006e 0B44     		add	r3, r3, r1
 486 0070 1B7A     		ldrb	r3, [r3, #8]
 487 0072 D8B2     		uxtb	r0, r3
 488 0074 1B49     		ldr	r1, .L42+8
 489 0076 1201     		lsls	r2, r2, #4
 490 0078 7B68     		ldr	r3, [r7, #4]
 491 007a 1344     		add	r3, r3, r2
 492 007c 0B44     		add	r3, r3, r1
 493 007e 0246     		mov	r2, r0
 494 0080 1A70     		strb	r2, [r3]
 679:.\Generated_Source\PSoC5/CAN_1_TX_RX_func.c ****         {
 495              		.loc 1 679 0 is_stmt 1 discriminator 4
 496 0082 7B68     		ldr	r3, [r7, #4]
 497 0084 0133     		adds	r3, r3, #1
 498 0086 7B60     		str	r3, [r7, #4]
 499              	.L36:
 679:.\Generated_Source\PSoC5/CAN_1_TX_RX_func.c ****         {
 500              		.loc 1 679 0 is_stmt 0 discriminator 2
 501 0088 144B     		ldr	r3, .L42
 502 008a 1B68     		ldr	r3, [r3]
 503 008c 154A     		ldr	r2, .L42+8
 504 008e 1B01     		lsls	r3, r3, #4
 505 0090 1344     		add	r3, r3, r2
 506 0092 0833     		adds	r3, r3, #8
 507 0094 1B78     		ldrb	r3, [r3]	@ zero_extendqisi2
 508 0096 1A46     		mov	r2, r3
ARM GAS  C:\Users\plod1602\AppData\Local\Temp\cc6YQjGN.s 			page 22


 509 0098 7B68     		ldr	r3, [r7, #4]
 510 009a 9A42     		cmp	r2, r3
 511 009c DADC     		bgt	.L39
 682:.\Generated_Source\PSoC5/CAN_1_TX_RX_func.c ****         }
 683:.\Generated_Source\PSoC5/CAN_1_TX_RX_func.c ****    
 684:.\Generated_Source\PSoC5/CAN_1_TX_RX_func.c ****         // Increment the amount of messages to be treated in the main loop.
 685:.\Generated_Source\PSoC5/CAN_1_TX_RX_func.c ****         messageToBeTreatedCount++; 
 512              		.loc 1 685 0 is_stmt 1
 513 009e 134B     		ldr	r3, .L42+16
 514 00a0 1B68     		ldr	r3, [r3]
 515 00a2 0133     		adds	r3, r3, #1
 516 00a4 114A     		ldr	r2, .L42+16
 517 00a6 1360     		str	r3, [r2]
 686:.\Generated_Source\PSoC5/CAN_1_TX_RX_func.c ****         
 687:.\Generated_Source\PSoC5/CAN_1_TX_RX_func.c ****         // If we reached the limit of the message buffer table, we set the next one to 0, otherwise
 688:.\Generated_Source\PSoC5/CAN_1_TX_RX_func.c ****         if (msgToBeStoredIndex == MAX_MSG_BUFFER_SIZE)
 518              		.loc 1 688 0
 519 00a8 0C4B     		ldr	r3, .L42
 520 00aa 1B68     		ldr	r3, [r3]
 521 00ac 322B     		cmp	r3, #50
 522 00ae 03D1     		bne	.L40
 689:.\Generated_Source\PSoC5/CAN_1_TX_RX_func.c ****         {
 690:.\Generated_Source\PSoC5/CAN_1_TX_RX_func.c ****             msgToBeStoredIndex = 0;
 523              		.loc 1 690 0
 524 00b0 0A4B     		ldr	r3, .L42
 525 00b2 0022     		movs	r2, #0
 526 00b4 1A60     		str	r2, [r3]
 527 00b6 04E0     		b	.L41
 528              	.L40:
 691:.\Generated_Source\PSoC5/CAN_1_TX_RX_func.c ****         }
 692:.\Generated_Source\PSoC5/CAN_1_TX_RX_func.c ****         else
 693:.\Generated_Source\PSoC5/CAN_1_TX_RX_func.c ****         {
 694:.\Generated_Source\PSoC5/CAN_1_TX_RX_func.c ****             msgToBeStoredIndex++; // Increment the counter indicating at which index starts the las
 529              		.loc 1 694 0
 530 00b8 084B     		ldr	r3, .L42
 531 00ba 1B68     		ldr	r3, [r3]
 532 00bc 0133     		adds	r3, r3, #1
 533 00be 074A     		ldr	r2, .L42
 534 00c0 1360     		str	r3, [r2]
 535              	.L41:
 695:.\Generated_Source\PSoC5/CAN_1_TX_RX_func.c ****         }
 696:.\Generated_Source\PSoC5/CAN_1_TX_RX_func.c ****         /* `#END` */
 697:.\Generated_Source\PSoC5/CAN_1_TX_RX_func.c **** 
 698:.\Generated_Source\PSoC5/CAN_1_TX_RX_func.c ****         #ifdef CAN_1_RECEIVE_MSG_0_CALLBACK
 699:.\Generated_Source\PSoC5/CAN_1_TX_RX_func.c ****             CAN_1_ReceiveMsg_0_Callback();
 700:.\Generated_Source\PSoC5/CAN_1_TX_RX_func.c ****         #endif /* CAN_1_RECEIVE_MSG_0_CALLBACK */
 701:.\Generated_Source\PSoC5/CAN_1_TX_RX_func.c **** 
 702:.\Generated_Source\PSoC5/CAN_1_TX_RX_func.c ****         CAN_1_RX[0u].rxcmd.byte[0u] |= CAN_1_RX_ACK_MSG;
 536              		.loc 1 702 0
 537 00c2 074A     		ldr	r2, .L42+4
 538 00c4 064B     		ldr	r3, .L42+4
 539 00c6 1B78     		ldrb	r3, [r3]
 540 00c8 DBB2     		uxtb	r3, r3
 541 00ca 43F00103 		orr	r3, r3, #1
 542 00ce DBB2     		uxtb	r3, r3
 543 00d0 1370     		strb	r3, [r2]
 703:.\Generated_Source\PSoC5/CAN_1_TX_RX_func.c ****     }
ARM GAS  C:\Users\plod1602\AppData\Local\Temp\cc6YQjGN.s 			page 23


 544              		.loc 1 703 0
 545 00d2 0C37     		adds	r7, r7, #12
 546              		.cfi_def_cfa_offset 4
 547 00d4 BD46     		mov	sp, r7
 548              		.cfi_def_cfa_register 13
 549              		@ sp needed
 550 00d6 5DF8047B 		ldr	r7, [sp], #4
 551              		.cfi_restore 7
 552              		.cfi_def_cfa_offset 0
 553 00da 7047     		bx	lr
 554              	.L43:
 555              		.align	2
 556              	.L42:
 557 00dc 00000000 		.word	msgToBeStoredIndex
 558 00e0 A0A00040 		.word	1073782944
 559 00e4 00000000 		.word	receivedMsgs
 560 00e8 A4A00040 		.word	1073782948
 561 00ec 00000000 		.word	messageToBeTreatedCount
 562              		.cfi_endproc
 563              	.LFE59:
 564              		.size	CAN_1_ReceiveMsg0, .-CAN_1_ReceiveMsg0
 565              		.text
 566              	.Letext0:
 567              		.file 2 "c:\\program files (x86)\\cypress\\psoc creator\\3.3\\psoc creator\\import\\gnu\\arm\\4.9.
 568              		.file 3 "c:\\program files (x86)\\cypress\\psoc creator\\3.3\\psoc creator\\import\\gnu\\arm\\4.9.
 569              		.file 4 ".\\Generated_Source\\PSoC5\\cytypes.h"
 570              		.file 5 ".\\Generated_Source\\PSoC5\\CAN_1.h"
 571              		.file 6 "./CAN_Communication.h"
 572              		.file 7 "Generated_Source\\PSoC5/core_cm3.h"