ARM GAS  C:\Users\plod1602\AppData\Local\Temp\cc09Bndp.s 			page 1


   1              		.syntax unified
   2              		.cpu cortex-m3
   3              		.fpu softvfp
   4              		.eabi_attribute 20, 1
   5              		.eabi_attribute 21, 1
   6              		.eabi_attribute 23, 3
   7              		.eabi_attribute 24, 1
   8              		.eabi_attribute 25, 1
   9              		.eabi_attribute 26, 1
  10              		.eabi_attribute 30, 6
  11              		.eabi_attribute 34, 1
  12              		.eabi_attribute 18, 4
  13              		.thumb
  14              		.file	"CAN_Communication.c"
  15              		.text
  16              	.Ltext0:
  17              		.cfi_sections	.debug_frame
  18              		.section	.text.can_getReceivedMessage,"ax",%progbits
  19              		.align	2
  20              		.global	can_getReceivedMessage
  21              		.thumb
  22              		.thumb_func
  23              		.type	can_getReceivedMessage, %function
  24              	can_getReceivedMessage:
  25              	.LFB56:
  26              		.file 1 ".\\CAN_Communication.c"
   1:.\CAN_Communication.c **** /* ========================================
   2:.\CAN_Communication.c ****  *
   3:.\CAN_Communication.c ****  * Copyright BioBot Instrumentation, 2015
   4:.\CAN_Communication.c ****  * All Rights Reserved
   5:.\CAN_Communication.c ****  * UNPUBLISHED, LICENSED SOFTWARE.
   6:.\CAN_Communication.c ****  *
   7:.\CAN_Communication.c ****  * CONFIDENTIAL AND PROPRIETARY INFORMATION
   8:.\CAN_Communication.c ****  * WHICH IS THE PROPERTY OF BioBot Instrumentation.
   9:.\CAN_Communication.c ****  *
  10:.\CAN_Communication.c ****  * WRITTEN BY : Philippe-Antoine Major &
  11:.\CAN_Communication.c ****  *              Louis-Vincent Major
  12:.\CAN_Communication.c ****  * ========================================
  13:.\CAN_Communication.c **** */
  14:.\CAN_Communication.c **** 
  15:.\CAN_Communication.c **** #include "CAN_Communication.h"
  16:.\CAN_Communication.c **** 
  17:.\CAN_Communication.c **** int8 can_sendMessage(CAN_MSG* msgPtr, uint32 CAN_ID);
  18:.\CAN_Communication.c **** 
  19:.\CAN_Communication.c **** // Retrieve the messages in the order they were received by the master. (FIFO)
  20:.\CAN_Communication.c **** CAN_MSG can_getReceivedMessage()
  21:.\CAN_Communication.c **** {
  27              		.loc 1 21 0
  28              		.cfi_startproc
  29              		@ args = 0, pretend = 0, frame = 24
  30              		@ frame_needed = 1, uses_anonymous_args = 0
  31              		@ link register save eliminated.
  32 0000 90B4     		push	{r4, r7}
  33              		.cfi_def_cfa_offset 8
  34              		.cfi_offset 4, -8
  35              		.cfi_offset 7, -4
  36 0002 86B0     		sub	sp, sp, #24
ARM GAS  C:\Users\plod1602\AppData\Local\Temp\cc09Bndp.s 			page 2


  37              		.cfi_def_cfa_offset 32
  38 0004 00AF     		add	r7, sp, #0
  39              		.cfi_def_cfa_register 7
  40 0006 7860     		str	r0, [r7, #4]
  22:.\CAN_Communication.c ****     //struct RX_Msg msgToTreat = receivedMessages[msgToBeTreatedIndex];
  23:.\CAN_Communication.c ****     CAN_MSG msgToTreat = receivedMsgs[msgToBeTreatedIndex];
  41              		.loc 1 23 0
  42 0008 134B     		ldr	r3, .L5
  43 000a 1B68     		ldr	r3, [r3]
  44 000c 134A     		ldr	r2, .L5+4
  45 000e 1B01     		lsls	r3, r3, #4
  46 0010 1344     		add	r3, r3, r2
  47 0012 07F10804 		add	r4, r7, #8
  48 0016 0FCB     		ldmia	r3, {r0, r1, r2, r3}
  49 0018 84E80F00 		stmia	r4, {r0, r1, r2, r3}
  24:.\CAN_Communication.c ****    
  25:.\CAN_Communication.c ****     // If we reached the limit of the message buffer table, we reset the index of messages to be tr
  26:.\CAN_Communication.c ****     if (msgToBeTreatedIndex == MAX_MSG_BUFFER_SIZE)
  50              		.loc 1 26 0
  51 001c 0E4B     		ldr	r3, .L5
  52 001e 1B68     		ldr	r3, [r3]
  53 0020 322B     		cmp	r3, #50
  54 0022 03D1     		bne	.L2
  27:.\CAN_Communication.c ****     {
  28:.\CAN_Communication.c ****         msgToBeTreatedIndex = 0;
  55              		.loc 1 28 0
  56 0024 0C4B     		ldr	r3, .L5
  57 0026 0022     		movs	r2, #0
  58 0028 1A60     		str	r2, [r3]
  59 002a 04E0     		b	.L3
  60              	.L2:
  29:.\CAN_Communication.c ****     }
  30:.\CAN_Communication.c ****     else
  31:.\CAN_Communication.c ****     {
  32:.\CAN_Communication.c ****         msgToBeTreatedIndex++; // Increment the counter indicating at which index starts the last m
  61              		.loc 1 32 0
  62 002c 0A4B     		ldr	r3, .L5
  63 002e 1B68     		ldr	r3, [r3]
  64 0030 0133     		adds	r3, r3, #1
  65 0032 094A     		ldr	r2, .L5
  66 0034 1360     		str	r3, [r2]
  67              	.L3:
  33:.\CAN_Communication.c ****     }
  34:.\CAN_Communication.c ****     // A message was treated, we decrement the counter of messages to be treated.
  35:.\CAN_Communication.c ****     messageToBeTreatedCount += -1;
  68              		.loc 1 35 0
  69 0036 0A4B     		ldr	r3, .L5+8
  70 0038 1B68     		ldr	r3, [r3]
  71 003a 013B     		subs	r3, r3, #1
  72 003c 084A     		ldr	r2, .L5+8
  73 003e 1360     		str	r3, [r2]
  36:.\CAN_Communication.c ****     
  37:.\CAN_Communication.c ****     return msgToTreat;
  74              		.loc 1 37 0
  75 0040 7B68     		ldr	r3, [r7, #4]
  76 0042 1C46     		mov	r4, r3
  77 0044 07F10803 		add	r3, r7, #8
ARM GAS  C:\Users\plod1602\AppData\Local\Temp\cc09Bndp.s 			page 3


  78 0048 0FCB     		ldmia	r3, {r0, r1, r2, r3}
  79 004a 84E80F00 		stmia	r4, {r0, r1, r2, r3}
  38:.\CAN_Communication.c **** }
  80              		.loc 1 38 0
  81 004e 7868     		ldr	r0, [r7, #4]
  82 0050 1837     		adds	r7, r7, #24
  83              		.cfi_def_cfa_offset 8
  84 0052 BD46     		mov	sp, r7
  85              		.cfi_def_cfa_register 13
  86              		@ sp needed
  87 0054 90BC     		pop	{r4, r7}
  88              		.cfi_restore 7
  89              		.cfi_restore 4
  90              		.cfi_def_cfa_offset 0
  91 0056 7047     		bx	lr
  92              	.L6:
  93              		.align	2
  94              	.L5:
  95 0058 00000000 		.word	msgToBeTreatedIndex
  96 005c 00000000 		.word	receivedMsgs
  97 0060 00000000 		.word	messageToBeTreatedCount
  98              		.cfi_endproc
  99              	.LFE56:
 100              		.size	can_getReceivedMessage, .-can_getReceivedMessage
 101              		.section	.text.sendDataToCAN,"ax",%progbits
 102              		.align	2
 103              		.global	sendDataToCAN
 104              		.thumb
 105              		.thumb_func
 106              		.type	sendDataToCAN, %function
 107              	sendDataToCAN:
 108              	.LFB57:
  39:.\CAN_Communication.c **** 
  40:.\CAN_Communication.c **** void sendDataToCAN(uint8 instruction, uint8 byte1, uint8 byte2, uint8 byte3, uint8 byte4, uint8 byt
  41:.\CAN_Communication.c **** {
 109              		.loc 1 41 0
 110              		.cfi_startproc
 111              		@ args = 16, pretend = 0, frame = 24
 112              		@ frame_needed = 1, uses_anonymous_args = 0
 113 0000 90B5     		push	{r4, r7, lr}
 114              		.cfi_def_cfa_offset 12
 115              		.cfi_offset 4, -12
 116              		.cfi_offset 7, -8
 117              		.cfi_offset 14, -4
 118 0002 87B0     		sub	sp, sp, #28
 119              		.cfi_def_cfa_offset 40
 120 0004 00AF     		add	r7, sp, #0
 121              		.cfi_def_cfa_register 7
 122 0006 0446     		mov	r4, r0
 123 0008 0846     		mov	r0, r1
 124 000a 1146     		mov	r1, r2
 125 000c 1A46     		mov	r2, r3
 126 000e 2346     		mov	r3, r4
 127 0010 FB71     		strb	r3, [r7, #7]
 128 0012 0346     		mov	r3, r0
 129 0014 BB71     		strb	r3, [r7, #6]
 130 0016 0B46     		mov	r3, r1
ARM GAS  C:\Users\plod1602\AppData\Local\Temp\cc09Bndp.s 			page 4


 131 0018 7B71     		strb	r3, [r7, #5]
 132 001a 1346     		mov	r3, r2
 133 001c 3B71     		strb	r3, [r7, #4]
  42:.\CAN_Communication.c ****     CAN_MSG msg = {{  instruction,
 134              		.loc 1 42 0
 135 001e FB79     		ldrb	r3, [r7, #7]
 136 0020 3B72     		strb	r3, [r7, #8]
 137 0022 BB79     		ldrb	r3, [r7, #6]
 138 0024 7B72     		strb	r3, [r7, #9]
 139 0026 7B79     		ldrb	r3, [r7, #5]
 140 0028 BB72     		strb	r3, [r7, #10]
 141 002a 3B79     		ldrb	r3, [r7, #4]
 142 002c FB72     		strb	r3, [r7, #11]
 143 002e 97F82830 		ldrb	r3, [r7, #40]
 144 0032 3B73     		strb	r3, [r7, #12]
 145 0034 97F82C30 		ldrb	r3, [r7, #44]
 146 0038 7B73     		strb	r3, [r7, #13]
 147 003a 97F83030 		ldrb	r3, [r7, #48]
 148 003e BB73     		strb	r3, [r7, #14]
 149 0040 97F83430 		ldrb	r3, [r7, #52]
 150 0044 FB73     		strb	r3, [r7, #15]
 151 0046 0823     		movs	r3, #8
 152 0048 3B74     		strb	r3, [r7, #16]
 153 004a FF23     		movs	r3, #255
 154 004c 7B61     		str	r3, [r7, #20]
  43:.\CAN_Communication.c ****                       byte1,byte2,byte3,byte4,byte5,byte6,byte7},
  44:.\CAN_Communication.c ****                       {8},{0xFF}}; // Sets the first bytes of the message.
  45:.\CAN_Communication.c ****     can_sendMessage(&msg,0xFF);  
 155              		.loc 1 45 0
 156 004e 07F10803 		add	r3, r7, #8
 157 0052 1846     		mov	r0, r3
 158 0054 FF21     		movs	r1, #255
 159 0056 FFF7FEFF 		bl	can_sendMessage
  46:.\CAN_Communication.c **** }
 160              		.loc 1 46 0
 161 005a 1C37     		adds	r7, r7, #28
 162              		.cfi_def_cfa_offset 12
 163 005c BD46     		mov	sp, r7
 164              		.cfi_def_cfa_register 13
 165              		@ sp needed
 166 005e 90BD     		pop	{r4, r7, pc}
 167              		.cfi_endproc
 168              	.LFE57:
 169              		.size	sendDataToCAN, .-sendDataToCAN
 170              		.section	.text.can_sendMessage,"ax",%progbits
 171              		.align	2
 172              		.global	can_sendMessage
 173              		.thumb
 174              		.thumb_func
 175              		.type	can_sendMessage, %function
 176              	can_sendMessage:
 177              	.LFB58:
  47:.\CAN_Communication.c **** 
  48:.\CAN_Communication.c **** 
  49:.\CAN_Communication.c **** // Send a message on the CAN Bus.
  50:.\CAN_Communication.c **** int8 can_sendMessage(CAN_MSG* msgPtr, uint32 CAN_ID)
  51:.\CAN_Communication.c **** {
ARM GAS  C:\Users\plod1602\AppData\Local\Temp\cc09Bndp.s 			page 5


 178              		.loc 1 51 0
 179              		.cfi_startproc
 180              		@ args = 0, pretend = 0, frame = 24
 181              		@ frame_needed = 1, uses_anonymous_args = 0
 182 0000 80B5     		push	{r7, lr}
 183              		.cfi_def_cfa_offset 8
 184              		.cfi_offset 7, -8
 185              		.cfi_offset 14, -4
 186 0002 86B0     		sub	sp, sp, #24
 187              		.cfi_def_cfa_offset 32
 188 0004 00AF     		add	r7, sp, #0
 189              		.cfi_def_cfa_register 7
 190 0006 7860     		str	r0, [r7, #4]
 191 0008 3960     		str	r1, [r7]
  52:.\CAN_Communication.c ****     CAN_1_TX_MSG msgToSend;
  53:.\CAN_Communication.c ****     
  54:.\CAN_Communication.c ****     msgToSend.id = CAN_ID;   
 192              		.loc 1 54 0
 193 000a 3B68     		ldr	r3, [r7]
 194 000c FB60     		str	r3, [r7, #12]
  55:.\CAN_Communication.c ****     msgToSend.rtr = MSG_RTR;
 195              		.loc 1 55 0
 196 000e 0023     		movs	r3, #0
 197 0010 3B74     		strb	r3, [r7, #16]
  56:.\CAN_Communication.c ****     msgToSend.ide = MSG_IDE;
 198              		.loc 1 56 0
 199 0012 0023     		movs	r3, #0
 200 0014 7B74     		strb	r3, [r7, #17]
  57:.\CAN_Communication.c ****     msgToSend.irq = MSG_IRQ;
 201              		.loc 1 57 0
 202 0016 0023     		movs	r3, #0
 203 0018 FB74     		strb	r3, [r7, #19]
  58:.\CAN_Communication.c ****     msgToSend.msg = &msgPtr->msgBytes;
 204              		.loc 1 58 0
 205 001a 7B68     		ldr	r3, [r7, #4]
 206 001c 7B61     		str	r3, [r7, #20]
  59:.\CAN_Communication.c ****     msgToSend.dlc = msgPtr->DLC;
 207              		.loc 1 59 0
 208 001e 7B68     		ldr	r3, [r7, #4]
 209 0020 1B7A     		ldrb	r3, [r3, #8]	@ zero_extendqisi2
 210 0022 BB74     		strb	r3, [r7, #18]
  60:.\CAN_Communication.c ****     
  61:.\CAN_Communication.c ****     CAN_1_SendMsg(&msgToSend);
 211              		.loc 1 61 0
 212 0024 07F10C03 		add	r3, r7, #12
 213 0028 1846     		mov	r0, r3
 214 002a FFF7FEFF 		bl	CAN_1_SendMsg
  62:.\CAN_Communication.c ****     return 1;
 215              		.loc 1 62 0
 216 002e 0123     		movs	r3, #1
 217 0030 5BB2     		sxtb	r3, r3
  63:.\CAN_Communication.c **** }
 218              		.loc 1 63 0
 219 0032 1846     		mov	r0, r3
 220 0034 1837     		adds	r7, r7, #24
 221              		.cfi_def_cfa_offset 8
 222 0036 BD46     		mov	sp, r7
ARM GAS  C:\Users\plod1602\AppData\Local\Temp\cc09Bndp.s 			page 6


 223              		.cfi_def_cfa_register 13
 224              		@ sp needed
 225 0038 80BD     		pop	{r7, pc}
 226              		.cfi_endproc
 227              	.LFE58:
 228              		.size	can_sendMessage, .-can_sendMessage
 229 003a 00BF     		.text
 230              	.Letext0:
 231              		.file 2 "c:\\program files (x86)\\cypress\\psoc creator\\3.3\\psoc creator\\import\\gnu\\arm\\4.9.
 232              		.file 3 "c:\\program files (x86)\\cypress\\psoc creator\\3.3\\psoc creator\\import\\gnu\\arm\\4.9.
 233              		.file 4 "Generated_Source\\PSoC5/cytypes.h"
 234              		.file 5 "Generated_Source\\PSoC5/CAN_1.h"
 235              		.file 6 ".\\CAN_Communication.h"
 236              		.file 7 "Generated_Source\\PSoC5/core_cm3.h"