ARM GAS  C:\Users\plod1602\AppData\Local\Temp\cc3VOlMg.s 			page 1


   1              		.syntax unified
   2              		.cpu cortex-m3
   3              		.fpu softvfp
   4              		.eabi_attribute 20, 1
   5              		.eabi_attribute 21, 1
   6              		.eabi_attribute 23, 3
   7              		.eabi_attribute 24, 1
   8              		.eabi_attribute 25, 1
   9              		.eabi_attribute 26, 1
  10              		.eabi_attribute 30, 6
  11              		.eabi_attribute 34, 1
  12              		.eabi_attribute 18, 4
  13              		.thumb
  14              		.file	"main.c"
  15              		.text
  16              	.Ltext0:
  17              		.cfi_sections	.debug_frame
  18              		.global	messageToBeTreatedCount
  19              		.bss
  20              		.align	2
  21              		.type	messageToBeTreatedCount, %object
  22              		.size	messageToBeTreatedCount, 4
  23              	messageToBeTreatedCount:
  24 0000 00000000 		.space	4
  25              		.global	msgToBeTreatedIndex
  26              		.align	2
  27              		.type	msgToBeTreatedIndex, %object
  28              		.size	msgToBeTreatedIndex, 4
  29              	msgToBeTreatedIndex:
  30 0004 00000000 		.space	4
  31              		.global	msgToBeStoredIndex
  32              		.align	2
  33              		.type	msgToBeStoredIndex, %object
  34              		.size	msgToBeStoredIndex, 4
  35              	msgToBeStoredIndex:
  36 0008 00000000 		.space	4
  37              		.comm	receivedMsgs,800,4
  38              		.global	readCanMessage
  39              		.type	readCanMessage, %object
  40              		.size	readCanMessage, 1
  41              	readCanMessage:
  42 000c 00       		.space	1
  43              		.global	treatingFunction
  44              		.type	treatingFunction, %object
  45              		.size	treatingFunction, 1
  46              	treatingFunction:
  47 000d 00       		.space	1
  48 000e 0000     		.section	.text.treatCanMessage,"ax",%progbits
  49              		.align	2
  50              		.global	treatCanMessage
  51              		.thumb
  52              		.thumb_func
  53              		.type	treatCanMessage, %function
  54              	treatCanMessage:
  55              	.LFB56:
  56              		.file 1 ".\\main.c"
   1:.\main.c      **** /*******************************************************************************
ARM GAS  C:\Users\plod1602\AppData\Local\Temp\cc3VOlMg.s 			page 2


   2:.\main.c      **** * Project Name:      HW_Fan_Control_with_Alert
   3:.\main.c      **** * Version:           1.20
   4:.\main.c      **** *
   5:.\main.c      **** * Device Used:       PSoC 3 CY8C3866AXI-040 or PSoC 5 CY8C5588AXI-060ES1
   6:.\main.c      **** * Software Used:     PSoC Creator v2.1
   7:.\main.c      **** * Compiler Used:     Keil(C51), ARM GNU CC
   8:.\main.c      **** * Related Hardware:  CY8CKIT-001 PSoC DVK
   9:.\main.c      **** ********************************************************************************
  10:.\main.c      **** * Theory of Operation:
  11:.\main.c      **** *
  12:.\main.c      **** *
  13:.\main.c      **** *******************************************************************************/
  14:.\main.c      **** #include "main.h"
  15:.\main.c      **** 
  16:.\main.c      **** 
  17:.\main.c      **** /* **************************************
  18:.\main.c      ****    MACROS
  19:.\main.c      ****  * *************************************/
  20:.\main.c      **** 
  21:.\main.c      **** #define SETCLOCK_4MHZ ControlReg_Write(ControlReg_Read() | 0x01)
  22:.\main.c      **** #define SETCLOCK_8MHZ ControlReg_Write(ControlReg_Read() & 0xFE)
  23:.\main.c      **** //#define TRIGGER_TIMER1 ControlReg_Write(ControlReg_Read() | 0x02); CyDelay(1); ControlReg_Write(C
  24:.\main.c      **** //#define TIMER1_STOP ControlReg_Write(ControlReg_Read() | 0x02);
  25:.\main.c      **** //#define TIMER1_RUN  ControlReg_Write(ControlReg_Read() & 0xFD)
  26:.\main.c      **** 
  27:.\main.c      **** /* **************************************
  28:.\main.c      ****    VARIABLES
  29:.\main.c      ****  * *************************************/
  30:.\main.c      **** 
  31:.\main.c      **** 
  32:.\main.c      **** 
  33:.\main.c      **** // ------- VARIABLES CAN ---------
  34:.\main.c      **** int messageToBeTreatedCount = 0;
  35:.\main.c      **** int msgToBeTreatedIndex = 0;
  36:.\main.c      **** int msgToBeStoredIndex = 0;
  37:.\main.c      **** CAN_MSG receivedMsgs[MAX_MSG_BUFFER_SIZE];
  38:.\main.c      **** // ----------------------------
  39:.\main.c      **** 
  40:.\main.c      **** volatile uint8 readCanMessage = 0;
  41:.\main.c      **** uint8 treatingFunction = 0;
  42:.\main.c      **** 
  43:.\main.c      **** 
  44:.\main.c      **** 
  45:.\main.c      **** uint8 treatCanMessage(uint8* canPacket)
  46:.\main.c      **** {   
  57              		.loc 1 46 0
  58              		.cfi_startproc
  59              		@ args = 0, pretend = 0, frame = 16
  60              		@ frame_needed = 1, uses_anonymous_args = 0
  61 0000 80B5     		push	{r7, lr}
  62              		.cfi_def_cfa_offset 8
  63              		.cfi_offset 7, -8
  64              		.cfi_offset 14, -4
  65 0002 84B0     		sub	sp, sp, #16
  66              		.cfi_def_cfa_offset 24
  67 0004 00AF     		add	r7, sp, #0
  68              		.cfi_def_cfa_register 7
ARM GAS  C:\Users\plod1602\AppData\Local\Temp\cc3VOlMg.s 			page 3


  69 0006 7860     		str	r0, [r7, #4]
  47:.\main.c      ****     uint16 rightMotorPosition = 0;
  70              		.loc 1 47 0
  71 0008 0023     		movs	r3, #0
  72 000a FB81     		strh	r3, [r7, #14]	@ movhi
  48:.\main.c      ****     uint16 leftMotorPosition = 0;
  73              		.loc 1 48 0
  74 000c 0023     		movs	r3, #0
  75 000e BB81     		strh	r3, [r7, #12]	@ movhi
  49:.\main.c      ****     int8 canInstruction = canPacket[0];
  76              		.loc 1 49 0
  77 0010 7B68     		ldr	r3, [r7, #4]
  78 0012 1B78     		ldrb	r3, [r3]	@ zero_extendqisi2
  79 0014 FB72     		strb	r3, [r7, #11]
  50:.\main.c      ****     
  51:.\main.c      ****                 
  52:.\main.c      ****     uint8 byte1 = canPacket[1];
  80              		.loc 1 52 0
  81 0016 7B68     		ldr	r3, [r7, #4]
  82 0018 5B78     		ldrb	r3, [r3, #1]
  83 001a BB72     		strb	r3, [r7, #10]
  53:.\main.c      ****     uint8 byte2 = canPacket[2];
  84              		.loc 1 53 0
  85 001c 7B68     		ldr	r3, [r7, #4]
  86 001e 9B78     		ldrb	r3, [r3, #2]
  87 0020 7B72     		strb	r3, [r7, #9]
  54:.\main.c      ****     
  55:.\main.c      ****     switch(canInstruction)
  88              		.loc 1 55 0
  89 0022 97F90B30 		ldrsb	r3, [r7, #11]
  90 0026 0E2B     		cmp	r3, #14
  91 0028 00F28481 		bhi	.L2
  92 002c 01A2     		adr	r2, .L4
  93 002e 52F823F0 		ldr	pc, [r2, r3, lsl #2]
  94 0032 00BF     		.p2align 2
  95              	.L4:
  96 0034 71000000 		.word	.L3+1
  97 0038 77000000 		.word	.L5+1
  98 003c 97000000 		.word	.L6+1
  99 0040 B9010000 		.word	.L7+1
 100 0044 E9010000 		.word	.L8+1
 101 0048 19020000 		.word	.L9+1
 102 004c 5D010000 		.word	.L10+1
 103 0050 8B010000 		.word	.L11+1
 104 0054 2D010000 		.word	.L12+1
 105 0058 37020000 		.word	.L13+1
 106 005c 65020000 		.word	.L14+1
 107 0060 D7020000 		.word	.L15+1
 108 0064 EB020000 		.word	.L16+1
 109 0068 FF020000 		.word	.L17+1
 110 006c 13030000 		.word	.L18+1
 111              		.p2align 1
 112              	.L3:
  56:.\main.c      ****     {
  57:.\main.c      ****         case CAN_INSTRUCTION_SET_Z_AXIS_HOME:
  58:.\main.c      ****             
  59:.\main.c      ****             Z_Axis_Home();
ARM GAS  C:\Users\plod1602\AppData\Local\Temp\cc3VOlMg.s 			page 4


 113              		.loc 1 59 0
 114 0070 FFF7FEFF 		bl	Z_Axis_Home
  60:.\main.c      ****             break;
 115              		.loc 1 60 0
 116 0074 5EE1     		b	.L2
 117              	.L5:
  61:.\main.c      ****         
  62:.\main.c      ****         case CAN_INSTRUCTION_SET_Z_AXIS_POSITION:
  63:.\main.c      ****             
  64:.\main.c      ****             Z_Axis_GoTo((uint16)(canPacket[6]<<8) | canPacket[7]);
 118              		.loc 1 64 0
 119 0076 7B68     		ldr	r3, [r7, #4]
 120 0078 0633     		adds	r3, r3, #6
 121 007a 1B78     		ldrb	r3, [r3]	@ zero_extendqisi2
 122 007c 9BB2     		uxth	r3, r3
 123 007e 1B02     		lsls	r3, r3, #8
 124 0080 9AB2     		uxth	r2, r3
 125 0082 7B68     		ldr	r3, [r7, #4]
 126 0084 0733     		adds	r3, r3, #7
 127 0086 1B78     		ldrb	r3, [r3]	@ zero_extendqisi2
 128 0088 9BB2     		uxth	r3, r3
 129 008a 1343     		orrs	r3, r3, r2
 130 008c 9BB2     		uxth	r3, r3
 131 008e 1846     		mov	r0, r3
 132 0090 FFF7FEFF 		bl	Z_Axis_GoTo
  65:.\main.c      ****             break;
 133              		.loc 1 65 0
 134 0094 4EE1     		b	.L2
 135              	.L6:
  66:.\main.c      ****             
  67:.\main.c      ****         case CAN_INSTRUCTION_OPEN_GRIPPER:
  68:.\main.c      ****             
  69:.\main.c      ****             // canPacket[1]:
  70:.\main.c      ****             //      pourcentage of the openning
  71:.\main.c      ****             
  72:.\main.c      ****             rightMotorPosition = ((motorMargin[MOTOR_RIGHT_MARGIN_CCW] - motorMargin[MOTOR_RIGHT_MA
 136              		.loc 1 72 0
 137 0096 AA4B     		ldr	r3, .L23
 138 0098 DB88     		ldrh	r3, [r3, #6]
 139 009a 1A46     		mov	r2, r3
 140 009c A84B     		ldr	r3, .L23
 141 009e 9B88     		ldrh	r3, [r3, #4]
 142 00a0 D31A     		subs	r3, r2, r3
 143 00a2 7A68     		ldr	r2, [r7, #4]
 144 00a4 0132     		adds	r2, r2, #1
 145 00a6 1278     		ldrb	r2, [r2]	@ zero_extendqisi2
 146 00a8 02FB03F3 		mul	r3, r2, r3
 147 00ac A54A     		ldr	r2, .L23+4
 148 00ae 82FB0312 		smull	r1, r2, r2, r3
 149 00b2 5211     		asrs	r2, r2, #5
 150 00b4 DB17     		asrs	r3, r3, #31
 151 00b6 D31A     		subs	r3, r2, r3
 152 00b8 9AB2     		uxth	r2, r3
 153 00ba A14B     		ldr	r3, .L23
 154 00bc 9B88     		ldrh	r3, [r3, #4]
 155 00be 1344     		add	r3, r3, r2
 156 00c0 FB81     		strh	r3, [r7, #14]	@ movhi
ARM GAS  C:\Users\plod1602\AppData\Local\Temp\cc3VOlMg.s 			page 5


  73:.\main.c      ****             leftMotorPosition  = ((motorMargin[MOTOR_LEFT_MARGIN_CCW] - motorMargin[MOTOR_LEFT_MARG
 157              		.loc 1 73 0
 158 00c2 9F4B     		ldr	r3, .L23
 159 00c4 5B88     		ldrh	r3, [r3, #2]
 160 00c6 1A46     		mov	r2, r3
 161 00c8 9D4B     		ldr	r3, .L23
 162 00ca 1B88     		ldrh	r3, [r3]
 163 00cc D31A     		subs	r3, r2, r3
 164 00ce 7A68     		ldr	r2, [r7, #4]
 165 00d0 0132     		adds	r2, r2, #1
 166 00d2 1278     		ldrb	r2, [r2]	@ zero_extendqisi2
 167 00d4 C2F16402 		rsb	r2, r2, #100
 168 00d8 02FB03F3 		mul	r3, r2, r3
 169 00dc 994A     		ldr	r2, .L23+4
 170 00de 82FB0312 		smull	r1, r2, r2, r3
 171 00e2 5211     		asrs	r2, r2, #5
 172 00e4 DB17     		asrs	r3, r3, #31
 173 00e6 D31A     		subs	r3, r2, r3
 174 00e8 9AB2     		uxth	r2, r3
 175 00ea 954B     		ldr	r3, .L23
 176 00ec 1B88     		ldrh	r3, [r3]
 177 00ee 1344     		add	r3, r3, r2
 178 00f0 BB81     		strh	r3, [r7, #12]	@ movhi
  74:.\main.c      ****             
  75:.\main.c      ****             sendPacketToDynamixel(dynamixel_setPositionRegPacket(motorType[MOTOR_TYPE_RIGHT], right
 179              		.loc 1 75 0
 180 00f2 954B     		ldr	r3, .L23+8
 181 00f4 DA78     		ldrb	r2, [r3, #3]	@ zero_extendqisi2
 182 00f6 FB89     		ldrh	r3, [r7, #14]
 183 00f8 1046     		mov	r0, r2
 184 00fa 1946     		mov	r1, r3
 185 00fc FFF7FEFF 		bl	dynamixel_setPositionRegPacket
 186 0100 0346     		mov	r3, r0
 187 0102 1846     		mov	r0, r3
 188 0104 FFF7FEFF 		bl	sendPacketToDynamixel
  76:.\main.c      ****             sendPacketToDynamixel(dynamixel_setPositionRegPacket(motorType[MOTOR_TYPE_LEFT], leftMo
 189              		.loc 1 76 0
 190 0108 8F4B     		ldr	r3, .L23+8
 191 010a 1A79     		ldrb	r2, [r3, #4]	@ zero_extendqisi2
 192 010c BB89     		ldrh	r3, [r7, #12]
 193 010e 1046     		mov	r0, r2
 194 0110 1946     		mov	r1, r3
 195 0112 FFF7FEFF 		bl	dynamixel_setPositionRegPacket
 196 0116 0346     		mov	r3, r0
 197 0118 1846     		mov	r0, r3
 198 011a FFF7FEFF 		bl	sendPacketToDynamixel
  77:.\main.c      ****             sendPacketToDynamixel(dynamixel_getActionPacket());
 199              		.loc 1 77 0
 200 011e FFF7FEFF 		bl	dynamixel_getActionPacket
 201 0122 0346     		mov	r3, r0
 202 0124 1846     		mov	r0, r3
 203 0126 FFF7FEFF 		bl	sendPacketToDynamixel
  78:.\main.c      ****             break;
 204              		.loc 1 78 0
 205 012a 03E1     		b	.L2
 206              	.L12:
  79:.\main.c      ****             
ARM GAS  C:\Users\plod1602\AppData\Local\Temp\cc3VOlMg.s 			page 6


  80:.\main.c      ****         case CAN_INSTRUCTION_MOVE:
  81:.\main.c      ****             
  82:.\main.c      ****             // canPacket[1]:
  83:.\main.c      ****             //      ID of the motor
  84:.\main.c      ****             // canPacket[2] & canPacket[3]:
  85:.\main.c      ****             //      Position of the motor (between 0 and 0x3ff)
  86:.\main.c      ****             
  87:.\main.c      ****             sendPacketToDynamixel(dynamixel_setPositionPacket(canPacket[1], (uint16)((canPacket[3]<
 207              		.loc 1 87 0
 208 012c 7B68     		ldr	r3, [r7, #4]
 209 012e 0133     		adds	r3, r3, #1
 210 0130 1978     		ldrb	r1, [r3]	@ zero_extendqisi2
 211 0132 7B68     		ldr	r3, [r7, #4]
 212 0134 0333     		adds	r3, r3, #3
 213 0136 1B78     		ldrb	r3, [r3]	@ zero_extendqisi2
 214 0138 9BB2     		uxth	r3, r3
 215 013a 1B02     		lsls	r3, r3, #8
 216 013c 9AB2     		uxth	r2, r3
 217 013e 7B68     		ldr	r3, [r7, #4]
 218 0140 0233     		adds	r3, r3, #2
 219 0142 1B78     		ldrb	r3, [r3]	@ zero_extendqisi2
 220 0144 9BB2     		uxth	r3, r3
 221 0146 1344     		add	r3, r3, r2
 222 0148 9BB2     		uxth	r3, r3
 223 014a 0846     		mov	r0, r1
 224 014c 1946     		mov	r1, r3
 225 014e FFF7FEFF 		bl	dynamixel_setPositionPacket
 226 0152 0346     		mov	r3, r0
 227 0154 1846     		mov	r0, r3
 228 0156 FFF7FEFF 		bl	sendPacketToDynamixel
  88:.\main.c      ****             break;
 229              		.loc 1 88 0
 230 015a EBE0     		b	.L2
 231              	.L10:
  89:.\main.c      ****         
  90:.\main.c      ****         case CAN_INSTRUCTION_TILT:
  91:.\main.c      ****             
  92:.\main.c      ****             // canPacket[1] & canPacket[2]:
  93:.\main.c      ****             //      position of the motor
  94:.\main.c      **** 
  95:.\main.c      ****             sendPacketToDynamixel(dynamixel_setPositionPacket(motorType[MOTOR_TYPE_TILT], (uint16)(
 232              		.loc 1 95 0
 233 015c 7A4B     		ldr	r3, .L23+8
 234 015e 9978     		ldrb	r1, [r3, #2]	@ zero_extendqisi2
 235 0160 7B68     		ldr	r3, [r7, #4]
 236 0162 0233     		adds	r3, r3, #2
 237 0164 1B78     		ldrb	r3, [r3]	@ zero_extendqisi2
 238 0166 9BB2     		uxth	r3, r3
 239 0168 1B02     		lsls	r3, r3, #8
 240 016a 9AB2     		uxth	r2, r3
 241 016c 7B68     		ldr	r3, [r7, #4]
 242 016e 0133     		adds	r3, r3, #1
 243 0170 1B78     		ldrb	r3, [r3]	@ zero_extendqisi2
 244 0172 9BB2     		uxth	r3, r3
 245 0174 1344     		add	r3, r3, r2
 246 0176 9BB2     		uxth	r3, r3
 247 0178 0846     		mov	r0, r1
ARM GAS  C:\Users\plod1602\AppData\Local\Temp\cc3VOlMg.s 			page 7


 248 017a 1946     		mov	r1, r3
 249 017c FFF7FEFF 		bl	dynamixel_setPositionPacket
 250 0180 0346     		mov	r3, r0
 251 0182 1846     		mov	r0, r3
 252 0184 FFF7FEFF 		bl	sendPacketToDynamixel
  96:.\main.c      ****             break;
 253              		.loc 1 96 0
 254 0188 D4E0     		b	.L2
 255              	.L11:
  97:.\main.c      ****             
  98:.\main.c      ****         case CAN_INSTRUCTION_ROTATE:
  99:.\main.c      ****             
 100:.\main.c      ****             // canPacket[1] & canPacket[2]:
 101:.\main.c      ****             //      position of the motor
 102:.\main.c      ****             
 103:.\main.c      ****             sendPacketToDynamixel(dynamixel_setPositionPacket(motorType[MOTOR_TYPE_ROTATE], (uint16
 256              		.loc 1 103 0
 257 018a 6F4B     		ldr	r3, .L23+8
 258 018c 5978     		ldrb	r1, [r3, #1]	@ zero_extendqisi2
 259 018e 7B68     		ldr	r3, [r7, #4]
 260 0190 0233     		adds	r3, r3, #2
 261 0192 1B78     		ldrb	r3, [r3]	@ zero_extendqisi2
 262 0194 9BB2     		uxth	r3, r3
 263 0196 1B02     		lsls	r3, r3, #8
 264 0198 9AB2     		uxth	r2, r3
 265 019a 7B68     		ldr	r3, [r7, #4]
 266 019c 0133     		adds	r3, r3, #1
 267 019e 1B78     		ldrb	r3, [r3]	@ zero_extendqisi2
 268 01a0 9BB2     		uxth	r3, r3
 269 01a2 1344     		add	r3, r3, r2
 270 01a4 9BB2     		uxth	r3, r3
 271 01a6 0846     		mov	r0, r1
 272 01a8 1946     		mov	r1, r3
 273 01aa FFF7FEFF 		bl	dynamixel_setPositionPacket
 274 01ae 0346     		mov	r3, r0
 275 01b0 1846     		mov	r0, r3
 276 01b2 FFF7FEFF 		bl	sendPacketToDynamixel
 104:.\main.c      ****             break;
 277              		.loc 1 104 0
 278 01b6 BDE0     		b	.L2
 279              	.L7:
 105:.\main.c      ****         
 106:.\main.c      ****         case CAN_INSTRUCTION_SET_MOVING_SPEED:
 107:.\main.c      ****             
 108:.\main.c      ****             // canPacket[1]:
 109:.\main.c      ****             //      ID of the motor
 110:.\main.c      ****             // canPacket[2] & canPacket[3]:
 111:.\main.c      ****             //      Moving speed of the motor (between 0 and 0x3ff)
 112:.\main.c      ****             
 113:.\main.c      ****             sendPacketToDynamixel(dynamixel_setMovingSpeedPacket(canPacket[1], (uint16)((canPacket[
 280              		.loc 1 113 0
 281 01b8 7B68     		ldr	r3, [r7, #4]
 282 01ba 0133     		adds	r3, r3, #1
 283 01bc 1978     		ldrb	r1, [r3]	@ zero_extendqisi2
 284 01be 7B68     		ldr	r3, [r7, #4]
 285 01c0 0333     		adds	r3, r3, #3
 286 01c2 1B78     		ldrb	r3, [r3]	@ zero_extendqisi2
ARM GAS  C:\Users\plod1602\AppData\Local\Temp\cc3VOlMg.s 			page 8


 287 01c4 9BB2     		uxth	r3, r3
 288 01c6 1B02     		lsls	r3, r3, #8
 289 01c8 9AB2     		uxth	r2, r3
 290 01ca 7B68     		ldr	r3, [r7, #4]
 291 01cc 0233     		adds	r3, r3, #2
 292 01ce 1B78     		ldrb	r3, [r3]	@ zero_extendqisi2
 293 01d0 9BB2     		uxth	r3, r3
 294 01d2 1344     		add	r3, r3, r2
 295 01d4 9BB2     		uxth	r3, r3
 296 01d6 0846     		mov	r0, r1
 297 01d8 1946     		mov	r1, r3
 298 01da FFF7FEFF 		bl	dynamixel_setMovingSpeedPacket
 299 01de 0346     		mov	r3, r0
 300 01e0 1846     		mov	r0, r3
 301 01e2 FFF7FEFF 		bl	sendPacketToDynamixel
 114:.\main.c      ****             break;
 302              		.loc 1 114 0
 303 01e6 A5E0     		b	.L2
 304              	.L8:
 115:.\main.c      ****             
 116:.\main.c      ****         case CAN_INSTRUCTION_SET_TORQUE:
 117:.\main.c      ****             
 118:.\main.c      ****             // canPacket[1]:
 119:.\main.c      ****             //      ID of the motor
 120:.\main.c      ****             // canPacket[2] & canPacket[3]:
 121:.\main.c      ****             //      Torque of the motor (between 0 and 0x3ff)
 122:.\main.c      ****             
 123:.\main.c      ****             sendPacketToDynamixel(dynamixel_setTorquePacket(canPacket[1], (uint16)((canPacket[3]<<8
 305              		.loc 1 123 0
 306 01e8 7B68     		ldr	r3, [r7, #4]
 307 01ea 0133     		adds	r3, r3, #1
 308 01ec 1978     		ldrb	r1, [r3]	@ zero_extendqisi2
 309 01ee 7B68     		ldr	r3, [r7, #4]
 310 01f0 0333     		adds	r3, r3, #3
 311 01f2 1B78     		ldrb	r3, [r3]	@ zero_extendqisi2
 312 01f4 9BB2     		uxth	r3, r3
 313 01f6 1B02     		lsls	r3, r3, #8
 314 01f8 9AB2     		uxth	r2, r3
 315 01fa 7B68     		ldr	r3, [r7, #4]
 316 01fc 0233     		adds	r3, r3, #2
 317 01fe 1B78     		ldrb	r3, [r3]	@ zero_extendqisi2
 318 0200 9BB2     		uxth	r3, r3
 319 0202 1344     		add	r3, r3, r2
 320 0204 9BB2     		uxth	r3, r3
 321 0206 0846     		mov	r0, r1
 322 0208 1946     		mov	r1, r3
 323 020a FFF7FEFF 		bl	dynamixel_setTorquePacket
 324 020e 0346     		mov	r3, r0
 325 0210 1846     		mov	r0, r3
 326 0212 FFF7FEFF 		bl	sendPacketToDynamixel
 124:.\main.c      ****             break;
 327              		.loc 1 124 0
 328 0216 8DE0     		b	.L2
 329              	.L9:
 125:.\main.c      ****             
 126:.\main.c      ****         case CAN_INSTRUCTION_SET_TORQUE_ENABLE:
 127:.\main.c      ****             
ARM GAS  C:\Users\plod1602\AppData\Local\Temp\cc3VOlMg.s 			page 9


 128:.\main.c      ****             // canPacket[1]: 
 129:.\main.c      ****             //      ID of the motor
 130:.\main.c      ****             //
 131:.\main.c      ****             // canPacket[2]: 
 132:.\main.c      ****             //      0 means no torque
 133:.\main.c      ****             //      1 means apply torque
 134:.\main.c      ****             
 135:.\main.c      ****             sendPacketToDynamixel(dynamixel_setTorqueEnablePacket(canPacket[1], canPacket[2]));
 330              		.loc 1 135 0
 331 0218 7B68     		ldr	r3, [r7, #4]
 332 021a 0133     		adds	r3, r3, #1
 333 021c 1A78     		ldrb	r2, [r3]	@ zero_extendqisi2
 334 021e 7B68     		ldr	r3, [r7, #4]
 335 0220 0233     		adds	r3, r3, #2
 336 0222 1B78     		ldrb	r3, [r3]	@ zero_extendqisi2
 337 0224 1046     		mov	r0, r2
 338 0226 1946     		mov	r1, r3
 339 0228 FFF7FEFF 		bl	dynamixel_setTorqueEnablePacket
 340 022c 0346     		mov	r3, r0
 341 022e 1846     		mov	r0, r3
 342 0230 FFF7FEFF 		bl	sendPacketToDynamixel
 136:.\main.c      ****             break;
 343              		.loc 1 136 0
 344 0234 7EE0     		b	.L2
 345              	.L13:
 137:.\main.c      ****             
 138:.\main.c      ****         case CAN_INSTRUCTION_GET_DATA:
 139:.\main.c      **** 			
 140:.\main.c      **** 			// canPacket[1]:
 141:.\main.c      **** 			//		ID of the motor
 142:.\main.c      **** 		    // canPacket[2]: 
 143:.\main.c      **** 			//      address of the first data in the dynamixel table
 144:.\main.c      **** 			// canPacket[3]:
 145:.\main.c      **** 			//		number of byte to retreive (max of 4)
 146:.\main.c      **** 			
 147:.\main.c      **** 			treatingFunction = canPacket[2];
 346              		.loc 1 147 0
 347 0236 7B68     		ldr	r3, [r7, #4]
 348 0238 9A78     		ldrb	r2, [r3, #2]	@ zero_extendqisi2
 349 023a 444B     		ldr	r3, .L23+12
 350 023c 1A70     		strb	r2, [r3]
 148:.\main.c      **** 			sendPacketToDynamixel(dynamixel_getReadPacket(canPacket[1], canPacket[2], canPacket[3]));
 351              		.loc 1 148 0
 352 023e 7B68     		ldr	r3, [r7, #4]
 353 0240 0133     		adds	r3, r3, #1
 354 0242 1978     		ldrb	r1, [r3]	@ zero_extendqisi2
 355 0244 7B68     		ldr	r3, [r7, #4]
 356 0246 0233     		adds	r3, r3, #2
 357 0248 1A78     		ldrb	r2, [r3]	@ zero_extendqisi2
 358 024a 7B68     		ldr	r3, [r7, #4]
 359 024c 0333     		adds	r3, r3, #3
 360 024e 1B78     		ldrb	r3, [r3]	@ zero_extendqisi2
 361 0250 0846     		mov	r0, r1
 362 0252 1146     		mov	r1, r2
 363 0254 1A46     		mov	r2, r3
 364 0256 FFF7FEFF 		bl	dynamixel_getReadPacket
 365 025a 0346     		mov	r3, r0
ARM GAS  C:\Users\plod1602\AppData\Local\Temp\cc3VOlMg.s 			page 10


 366 025c 1846     		mov	r0, r3
 367 025e FFF7FEFF 		bl	sendPacketToDynamixel
 149:.\main.c      **** 			break;
 368              		.loc 1 149 0
 369 0262 67E0     		b	.L2
 370              	.L14:
 150:.\main.c      ****         
 151:.\main.c      ****         case CAN_INSTRUCTION_SET_DATA:
 152:.\main.c      ****             
 153:.\main.c      **** 		    // canPacket[1]: 
 154:.\main.c      **** 			//      ID of the motor
 155:.\main.c      **** 			// canPacket[2]:
 156:.\main.c      **** 			//		address of the first data in the dynamixel table
 157:.\main.c      **** 			// canPacket[3]:
 158:.\main.c      **** 			//		number of byte to retreive (max of 2)
 159:.\main.c      ****             // canPacket[4] & canPacket[5]:
 160:.\main.c      ****             //      data to push to the motor
 161:.\main.c      ****             
 162:.\main.c      ****             switch(canPacket[3]) 
 371              		.loc 1 162 0
 372 0264 7B68     		ldr	r3, [r7, #4]
 373 0266 0333     		adds	r3, r3, #3
 374 0268 1B78     		ldrb	r3, [r3]	@ zero_extendqisi2
 375 026a 012B     		cmp	r3, #1
 376 026c 02D0     		beq	.L20
 377 026e 022B     		cmp	r3, #2
 378 0270 13D0     		beq	.L21
 163:.\main.c      ****             {
 164:.\main.c      ****                 case 1:
 165:.\main.c      ****                     sendPacketToDynamixel(dynamixel_setByte(canPacket[1], canPacket[2], canPacket[4
 166:.\main.c      ****                     break;
 167:.\main.c      ****                 case 2:
 168:.\main.c      ****                     updateAngleLimitData(canPacket);
 169:.\main.c      ****                     sendPacketToDynamixel(dynamixel_set2Bytes(canPacket[1], canPacket[2], (canPacke
 170:.\main.c      ****                     break;
 171:.\main.c      ****             }
 172:.\main.c      ****             
 173:.\main.c      ****             break;
 379              		.loc 1 173 0
 380 0272 5FE0     		b	.L2
 381              	.L20:
 165:.\main.c      ****                     break;
 382              		.loc 1 165 0
 383 0274 7B68     		ldr	r3, [r7, #4]
 384 0276 0133     		adds	r3, r3, #1
 385 0278 1978     		ldrb	r1, [r3]	@ zero_extendqisi2
 386 027a 7B68     		ldr	r3, [r7, #4]
 387 027c 0233     		adds	r3, r3, #2
 388 027e 1A78     		ldrb	r2, [r3]	@ zero_extendqisi2
 389 0280 7B68     		ldr	r3, [r7, #4]
 390 0282 0433     		adds	r3, r3, #4
 391 0284 1B78     		ldrb	r3, [r3]	@ zero_extendqisi2
 392 0286 0846     		mov	r0, r1
 393 0288 1146     		mov	r1, r2
 394 028a 1A46     		mov	r2, r3
 395 028c FFF7FEFF 		bl	dynamixel_setByte
 396 0290 0346     		mov	r3, r0
ARM GAS  C:\Users\plod1602\AppData\Local\Temp\cc3VOlMg.s 			page 11


 397 0292 1846     		mov	r0, r3
 398 0294 FFF7FEFF 		bl	sendPacketToDynamixel
 166:.\main.c      ****                 case 2:
 399              		.loc 1 166 0
 400 0298 1CE0     		b	.L19
 401              	.L21:
 168:.\main.c      ****                     sendPacketToDynamixel(dynamixel_set2Bytes(canPacket[1], canPacket[2], (canPacke
 402              		.loc 1 168 0
 403 029a 7868     		ldr	r0, [r7, #4]
 404 029c FFF7FEFF 		bl	updateAngleLimitData
 169:.\main.c      ****                     break;
 405              		.loc 1 169 0
 406 02a0 7B68     		ldr	r3, [r7, #4]
 407 02a2 0133     		adds	r3, r3, #1
 408 02a4 1878     		ldrb	r0, [r3]	@ zero_extendqisi2
 409 02a6 7B68     		ldr	r3, [r7, #4]
 410 02a8 0233     		adds	r3, r3, #2
 411 02aa 1978     		ldrb	r1, [r3]	@ zero_extendqisi2
 412 02ac 7B68     		ldr	r3, [r7, #4]
 413 02ae 0533     		adds	r3, r3, #5
 414 02b0 1B78     		ldrb	r3, [r3]	@ zero_extendqisi2
 415 02b2 9BB2     		uxth	r3, r3
 416 02b4 1B02     		lsls	r3, r3, #8
 417 02b6 9AB2     		uxth	r2, r3
 418 02b8 7B68     		ldr	r3, [r7, #4]
 419 02ba 0433     		adds	r3, r3, #4
 420 02bc 1B78     		ldrb	r3, [r3]	@ zero_extendqisi2
 421 02be 9BB2     		uxth	r3, r3
 422 02c0 1344     		add	r3, r3, r2
 423 02c2 9BB2     		uxth	r3, r3
 424 02c4 1A46     		mov	r2, r3
 425 02c6 FFF7FEFF 		bl	dynamixel_set2Bytes
 426 02ca 0346     		mov	r3, r0
 427 02cc 1846     		mov	r0, r3
 428 02ce FFF7FEFF 		bl	sendPacketToDynamixel
 170:.\main.c      ****             }
 429              		.loc 1 170 0
 430 02d2 00BF     		nop
 431              	.L19:
 432              		.loc 1 173 0
 433 02d4 2EE0     		b	.L2
 434              	.L15:
 174:.\main.c      ****             
 175:.\main.c      ****         case CAN_INSTRUCTION_CLOCK_4M:
 176:.\main.c      ****             
 177:.\main.c      ****             SETCLOCK_4MHZ;
 435              		.loc 1 177 0
 436 02d6 FFF7FEFF 		bl	ControlReg_Read
 437 02da 0346     		mov	r3, r0
 438 02dc 43F00103 		orr	r3, r3, #1
 439 02e0 DBB2     		uxtb	r3, r3
 440 02e2 1846     		mov	r0, r3
 441 02e4 FFF7FEFF 		bl	ControlReg_Write
 178:.\main.c      ****             break;
 442              		.loc 1 178 0
 443 02e8 24E0     		b	.L2
 444              	.L16:
ARM GAS  C:\Users\plod1602\AppData\Local\Temp\cc3VOlMg.s 			page 12


 179:.\main.c      ****             
 180:.\main.c      ****         case CAN_INSTRUCTION_CLOCK_8M:
 181:.\main.c      ****             
 182:.\main.c      ****             SETCLOCK_8MHZ;
 445              		.loc 1 182 0
 446 02ea FFF7FEFF 		bl	ControlReg_Read
 447 02ee 0346     		mov	r3, r0
 448 02f0 23F00103 		bic	r3, r3, #1
 449 02f4 DBB2     		uxtb	r3, r3
 450 02f6 1846     		mov	r0, r3
 451 02f8 FFF7FEFF 		bl	ControlReg_Write
 183:.\main.c      ****             break;
 452              		.loc 1 183 0
 453 02fc 1AE0     		b	.L2
 454              	.L17:
 184:.\main.c      ****             
 185:.\main.c      ****         case CAN_INSTRUCTION_GET_MOTOR_TYPE:
 186:.\main.c      ****             
 187:.\main.c      **** 		    // canPacket[1]: 
 188:.\main.c      **** 			//      ID of the motor
 189:.\main.c      **** 			
 190:.\main.c      **** 			treatingFunction = CAN_INSTRUCTION_GET_MOTOR_TYPE;
 455              		.loc 1 190 0
 456 02fe 134B     		ldr	r3, .L23+12
 457 0300 0D22     		movs	r2, #13
 458 0302 1A70     		strb	r2, [r3]
 191:.\main.c      ****             sendMotorTypeToComputer(canPacket[1]);
 459              		.loc 1 191 0
 460 0304 7B68     		ldr	r3, [r7, #4]
 461 0306 0133     		adds	r3, r3, #1
 462 0308 1B78     		ldrb	r3, [r3]	@ zero_extendqisi2
 463 030a 1846     		mov	r0, r3
 464 030c FFF7FEFF 		bl	sendMotorTypeToComputer
 192:.\main.c      ****             break;
 465              		.loc 1 192 0
 466 0310 10E0     		b	.L2
 467              	.L18:
 193:.\main.c      ****             
 194:.\main.c      ****         case CAN_INSTRUCTION_SET_MOTOR_TYPE:
 195:.\main.c      ****             
 196:.\main.c      ****             // canPacket[1]: 
 197:.\main.c      **** 			//      ID of the motor
 198:.\main.c      ****             // canPacket[2]: 
 199:.\main.c      **** 			//      Motor type (0 to 4)
 200:.\main.c      ****             
 201:.\main.c      ****             eraseMotorType(canPacket[1]);
 468              		.loc 1 201 0
 469 0312 7B68     		ldr	r3, [r7, #4]
 470 0314 0133     		adds	r3, r3, #1
 471 0316 1B78     		ldrb	r3, [r3]	@ zero_extendqisi2
 472 0318 1846     		mov	r0, r3
 473 031a FFF7FEFF 		bl	eraseMotorType
 202:.\main.c      ****             saveMotorType(canPacket[1], canPacket[2]);
 474              		.loc 1 202 0
 475 031e 7B68     		ldr	r3, [r7, #4]
 476 0320 0133     		adds	r3, r3, #1
 477 0322 1A78     		ldrb	r2, [r3]	@ zero_extendqisi2
ARM GAS  C:\Users\plod1602\AppData\Local\Temp\cc3VOlMg.s 			page 13


 478 0324 7B68     		ldr	r3, [r7, #4]
 479 0326 0233     		adds	r3, r3, #2
 480 0328 1B78     		ldrb	r3, [r3]	@ zero_extendqisi2
 481 032a 1046     		mov	r0, r2
 482 032c 1946     		mov	r1, r3
 483 032e FFF7FEFF 		bl	saveMotorType
 203:.\main.c      ****             break;
 484              		.loc 1 203 0
 485 0332 00BF     		nop
 486              	.L2:
 204:.\main.c      ****             
 205:.\main.c      ****     }
 206:.\main.c      ****     return 0;
 487              		.loc 1 206 0
 488 0334 0023     		movs	r3, #0
 207:.\main.c      **** }
 489              		.loc 1 207 0
 490 0336 1846     		mov	r0, r3
 491 0338 1037     		adds	r7, r7, #16
 492              		.cfi_def_cfa_offset 8
 493 033a BD46     		mov	sp, r7
 494              		.cfi_def_cfa_register 13
 495              		@ sp needed
 496 033c 80BD     		pop	{r7, pc}
 497              	.L24:
 498 033e 00BF     		.align	2
 499              	.L23:
 500 0340 00000000 		.word	motorMargin
 501 0344 1F85EB51 		.word	1374389535
 502 0348 00000000 		.word	motorType
 503 034c 00000000 		.word	treatingFunction
 504              		.cfi_endproc
 505              	.LFE56:
 506              		.size	treatCanMessage, .-treatCanMessage
 507              		.section	.text.CounterCanInterruptHandler,"ax",%progbits
 508              		.align	2
 509              		.global	CounterCanInterruptHandler
 510              		.thumb
 511              		.thumb_func
 512              		.type	CounterCanInterruptHandler, %function
 513              	CounterCanInterruptHandler:
 514              	.LFB57:
 208:.\main.c      **** 
 209:.\main.c      **** /*******************************************************************************
 210:.\main.c      **** * COUNTER CAN READER INTERRUPT ROUTINE
 211:.\main.c      **** ********************************************************************************/
 212:.\main.c      **** CY_ISR(CounterCanInterruptHandler)
 213:.\main.c      **** {
 515              		.loc 1 213 0
 516              		.cfi_startproc
 517              		@ args = 0, pretend = 0, frame = 0
 518              		@ frame_needed = 1, uses_anonymous_args = 0
 519              		@ link register save eliminated.
 520 0000 80B4     		push	{r7}
 521              		.cfi_def_cfa_offset 4
 522              		.cfi_offset 7, -4
 523 0002 00AF     		add	r7, sp, #0
ARM GAS  C:\Users\plod1602\AppData\Local\Temp\cc3VOlMg.s 			page 14


 524              		.cfi_def_cfa_register 7
 214:.\main.c      **** 	/* Read Status register in order to clear the sticky Terminal Count (TC) bit 
 215:.\main.c      **** 	 * in the status register. 
 216:.\main.c      ****      */
 217:.\main.c      ****     Counter_CanReader_STATUS;
 525              		.loc 1 217 0
 526 0004 044B     		ldr	r3, .L26
 527 0006 1B78     		ldrb	r3, [r3]
 218:.\main.c      ****     //Pin_RedLed_Write(~Pin_RedLed_Read());
 219:.\main.c      ****     readCanMessage = 1;
 528              		.loc 1 219 0
 529 0008 044B     		ldr	r3, .L26+4
 530 000a 0122     		movs	r2, #1
 531 000c 1A70     		strb	r2, [r3]
 220:.\main.c      **** }
 532              		.loc 1 220 0
 533 000e BD46     		mov	sp, r7
 534              		.cfi_def_cfa_register 13
 535              		@ sp needed
 536 0010 5DF8047B 		ldr	r7, [sp], #4
 537              		.cfi_restore 7
 538              		.cfi_def_cfa_offset 0
 539 0014 7047     		bx	lr
 540              	.L27:
 541 0016 00BF     		.align	2
 542              	.L26:
 543 0018 034F0040 		.word	1073762051
 544 001c 00000000 		.word	readCanMessage
 545              		.cfi_endproc
 546              	.LFE57:
 547              		.size	CounterCanInterruptHandler, .-CounterCanInterruptHandler
 548              		.section	.text.main,"ax",%progbits
 549              		.align	2
 550              		.global	main
 551              		.thumb
 552              		.thumb_func
 553              		.type	main, %function
 554              	main:
 555              	.LFB58:
 221:.\main.c      **** 
 222:.\main.c      **** 
 223:.\main.c      **** int main()
 224:.\main.c      **** {
 556              		.loc 1 224 0
 557              		.cfi_startproc
 558              		@ args = 0, pretend = 0, frame = 16
 559              		@ frame_needed = 1, uses_anonymous_args = 0
 560 0000 80B5     		push	{r7, lr}
 561              		.cfi_def_cfa_offset 8
 562              		.cfi_offset 7, -8
 563              		.cfi_offset 14, -4
 564 0002 84B0     		sub	sp, sp, #16
 565              		.cfi_def_cfa_offset 24
 566 0004 00AF     		add	r7, sp, #0
 567              		.cfi_def_cfa_register 7
 225:.\main.c      ****     init_eeprom();
 568              		.loc 1 225 0
ARM GAS  C:\Users\plod1602\AppData\Local\Temp\cc3VOlMg.s 			page 15


 569 0006 FFF7FEFF 		bl	init_eeprom
 226:.\main.c      ****     readEeprom();
 570              		.loc 1 226 0
 571 000a FFF7FEFF 		bl	readEeprom
 227:.\main.c      ****     
 228:.\main.c      ****     init_uart_dynamixel();
 572              		.loc 1 228 0
 573 000e FFF7FEFF 		bl	init_uart_dynamixel
 229:.\main.c      ****     init_can_module();
 574              		.loc 1 229 0
 575 0012 FFF7FEFF 		bl	init_can_module
 230:.\main.c      ****     Z_Axis_Init();
 576              		.loc 1 230 0
 577 0016 FFF7FEFF 		bl	Z_Axis_Init
 231:.\main.c      ****     
 232:.\main.c      ****     SETCLOCK_4MHZ;
 578              		.loc 1 232 0
 579 001a FFF7FEFF 		bl	ControlReg_Read
 580 001e 0346     		mov	r3, r0
 581 0020 43F00103 		orr	r3, r3, #1
 582 0024 DBB2     		uxtb	r3, r3
 583 0026 1846     		mov	r0, r3
 584 0028 FFF7FEFF 		bl	ControlReg_Write
 233:.\main.c      ****     CyGlobalIntEnable; // Enable Global Interrupts
 585              		.loc 1 233 0
 586              	@ 233 ".\main.c" 1
 587 002c 62B6     		CPSIE   i
 588              	@ 0 "" 2
 589              		.thumb
 590              	.L30:
 234:.\main.c      **** 
 235:.\main.c      **** 	for(;;){
 236:.\main.c      ****         
 237:.\main.c      ****         
 238:.\main.c      ****         //Verify if a message needs to be treated in the message received buffer.       
 239:.\main.c      ****         if(readCanMessage == 1 && messageToBeTreatedCount > 0)
 591              		.loc 1 239 0
 592 002e 0A4B     		ldr	r3, .L31
 593 0030 1B78     		ldrb	r3, [r3]
 594 0032 DBB2     		uxtb	r3, r3
 595 0034 012B     		cmp	r3, #1
 596 0036 0ED1     		bne	.L29
 597              		.loc 1 239 0 is_stmt 0 discriminator 1
 598 0038 084B     		ldr	r3, .L31+4
 599 003a 1B68     		ldr	r3, [r3]
 600 003c 002B     		cmp	r3, #0
 601 003e 0ADD     		ble	.L29
 602              	.LBB2:
 240:.\main.c      ****         {
 241:.\main.c      ****             readCanMessage = 0;
 603              		.loc 1 241 0 is_stmt 1
 604 0040 054B     		ldr	r3, .L31
 605 0042 0022     		movs	r2, #0
 606 0044 1A70     		strb	r2, [r3]
 242:.\main.c      ****             // Treat the last message received and echo it back on the CAN bus as an acknowledgemen
 243:.\main.c      ****             CAN_MSG msgToTreat = can_getReceivedMessage(); 
 607              		.loc 1 243 0
ARM GAS  C:\Users\plod1602\AppData\Local\Temp\cc3VOlMg.s 			page 16


 608 0046 3B46     		mov	r3, r7
 609 0048 1846     		mov	r0, r3
 610 004a FFF7FEFF 		bl	can_getReceivedMessage
 244:.\main.c      ****             treatCanMessage(msgToTreat.msgBytes.byte);
 611              		.loc 1 244 0
 612 004e 3B46     		mov	r3, r7
 613 0050 1846     		mov	r0, r3
 614 0052 FFF7FEFF 		bl	treatCanMessage
 615              	.L29:
 616              	.LBE2:
 245:.\main.c      ****         }//*/
 246:.\main.c      ****     
 247:.\main.c      ****     }
 617              		.loc 1 247 0 discriminator 1
 618 0056 EAE7     		b	.L30
 619              	.L32:
 620              		.align	2
 621              	.L31:
 622 0058 00000000 		.word	readCanMessage
 623 005c 00000000 		.word	messageToBeTreatedCount
 624              		.cfi_endproc
 625              	.LFE58:
 626              		.size	main, .-main
 627              		.section	.text.init_can_module,"ax",%progbits
 628              		.align	2
 629              		.global	init_can_module
 630              		.thumb
 631              		.thumb_func
 632              		.type	init_can_module, %function
 633              	init_can_module:
 634              	.LFB59:
 248:.\main.c      **** }
 249:.\main.c      **** 
 250:.\main.c      **** 
 251:.\main.c      **** /******************************************************************************
 252:.\main.c      **** * HELPER FUNCTIONS
 253:.\main.c      **** *******************************************************************************/
 254:.\main.c      **** 
 255:.\main.c      **** void init_can_module()
 256:.\main.c      **** {
 635              		.loc 1 256 0
 636              		.cfi_startproc
 637              		@ args = 0, pretend = 0, frame = 0
 638              		@ frame_needed = 1, uses_anonymous_args = 0
 639 0000 80B5     		push	{r7, lr}
 640              		.cfi_def_cfa_offset 8
 641              		.cfi_offset 7, -8
 642              		.cfi_offset 14, -4
 643 0002 00AF     		add	r7, sp, #0
 644              		.cfi_def_cfa_register 7
 257:.\main.c      ****     // Initializing required components for CAN communication
 258:.\main.c      ****     CAN_1_Start();
 645              		.loc 1 258 0
 646 0004 FFF7FEFF 		bl	CAN_1_Start
 259:.\main.c      ****     CAN_1_GlobalIntEnable();
 647              		.loc 1 259 0
 648 0008 FFF7FEFF 		bl	CAN_1_GlobalIntEnable
ARM GAS  C:\Users\plod1602\AppData\Local\Temp\cc3VOlMg.s 			page 17


 260:.\main.c      ****     CAN_Standby_Write(0);
 649              		.loc 1 260 0
 650 000c 0020     		movs	r0, #0
 651 000e FFF7FEFF 		bl	CAN_Standby_Write
 261:.\main.c      ****     
 262:.\main.c      ****     // CAN message are read every time the counter turns to zero
 263:.\main.c      ****     CanReaderISR_StartEx(CounterCanInterruptHandler);
 652              		.loc 1 263 0
 653 0012 0348     		ldr	r0, .L34
 654 0014 FFF7FEFF 		bl	CanReaderISR_StartEx
 264:.\main.c      ****     Counter_CanReader_Start();
 655              		.loc 1 264 0
 656 0018 FFF7FEFF 		bl	Counter_CanReader_Start
 265:.\main.c      **** }
 657              		.loc 1 265 0
 658 001c 80BD     		pop	{r7, pc}
 659              	.L35:
 660 001e 00BF     		.align	2
 661              	.L34:
 662 0020 00000000 		.word	CounterCanInterruptHandler
 663              		.cfi_endproc
 664              	.LFE59:
 665              		.size	init_can_module, .-init_can_module
 666              		.section	.text.sendMotorTypeToComputer,"ax",%progbits
 667              		.align	2
 668              		.global	sendMotorTypeToComputer
 669              		.thumb
 670              		.thumb_func
 671              		.type	sendMotorTypeToComputer, %function
 672              	sendMotorTypeToComputer:
 673              	.LFB60:
 266:.\main.c      **** 
 267:.\main.c      **** 
 268:.\main.c      **** 
 269:.\main.c      **** void sendMotorTypeToComputer(unsigned char id)
 270:.\main.c      **** {
 674              		.loc 1 270 0
 675              		.cfi_startproc
 676              		@ args = 0, pretend = 0, frame = 24
 677              		@ frame_needed = 1, uses_anonymous_args = 0
 678 0000 80B5     		push	{r7, lr}
 679              		.cfi_def_cfa_offset 8
 680              		.cfi_offset 7, -8
 681              		.cfi_offset 14, -4
 682 0002 86B0     		sub	sp, sp, #24
 683              		.cfi_def_cfa_offset 32
 684 0004 00AF     		add	r7, sp, #0
 685              		.cfi_def_cfa_register 7
 686 0006 0346     		mov	r3, r0
 687 0008 FB71     		strb	r3, [r7, #7]
 271:.\main.c      ****     CAN_MSG canMsg;
 272:.\main.c      ****     
 273:.\main.c      ****     canMsg.msgBytes.byte[0] = 0;
 688              		.loc 1 273 0
 689 000a 0023     		movs	r3, #0
 690 000c 3B72     		strb	r3, [r7, #8]
 274:.\main.c      ****     canMsg.msgBytes.byte[1] = CAN_HARDWARE_FILTER_ID;
ARM GAS  C:\Users\plod1602\AppData\Local\Temp\cc3VOlMg.s 			page 18


 691              		.loc 1 274 0
 692 000e 3023     		movs	r3, #48
 693 0010 7B72     		strb	r3, [r7, #9]
 275:.\main.c      ****     canMsg.msgBytes.byte[2] = CAN_INSTRUCTION_GET_MOTOR_TYPE;
 694              		.loc 1 275 0
 695 0012 0D23     		movs	r3, #13
 696 0014 BB72     		strb	r3, [r7, #10]
 276:.\main.c      ****     canMsg.msgBytes.byte[3] = id;
 697              		.loc 1 276 0
 698 0016 FB79     		ldrb	r3, [r7, #7]
 699 0018 FB72     		strb	r3, [r7, #11]
 277:.\main.c      ****     canMsg.msgBytes.byte[4] = getMotorType(id);
 700              		.loc 1 277 0
 701 001a FB79     		ldrb	r3, [r7, #7]	@ zero_extendqisi2
 702 001c 1846     		mov	r0, r3
 703 001e FFF7FEFF 		bl	getMotorType
 704 0022 0346     		mov	r3, r0
 705 0024 3B73     		strb	r3, [r7, #12]
 278:.\main.c      ****     
 279:.\main.c      ****     canMsg.DLC = 5;
 706              		.loc 1 279 0
 707 0026 0523     		movs	r3, #5
 708 0028 3B74     		strb	r3, [r7, #16]
 280:.\main.c      ****     can_sendMessage(&canMsg, CAN_COMPUTER_ID);
 709              		.loc 1 280 0
 710 002a 07F10803 		add	r3, r7, #8
 711 002e 1846     		mov	r0, r3
 712 0030 FF21     		movs	r1, #255
 713 0032 FFF7FEFF 		bl	can_sendMessage
 281:.\main.c      **** }
 714              		.loc 1 281 0
 715 0036 1837     		adds	r7, r7, #24
 716              		.cfi_def_cfa_offset 8
 717 0038 BD46     		mov	sp, r7
 718              		.cfi_def_cfa_register 13
 719              		@ sp needed
 720 003a 80BD     		pop	{r7, pc}
 721              		.cfi_endproc
 722              	.LFE60:
 723              		.size	sendMotorTypeToComputer, .-sendMotorTypeToComputer
 724              		.text
 725              	.Letext0:
 726              		.file 2 "c:\\program files (x86)\\cypress\\psoc creator\\3.3\\psoc creator\\import\\gnu\\arm\\4.9.
 727              		.file 3 "c:\\program files (x86)\\cypress\\psoc creator\\3.3\\psoc creator\\import\\gnu\\arm\\4.9.
 728              		.file 4 "Generated_Source\\PSoC5/cytypes.h"
 729              		.file 5 "Generated_Source\\PSoC5/CAN_1.h"
 730              		.file 6 ".\\CAN_Communication.h"
 731              		.file 7 "Generated_Source\\PSoC5/core_cm3.h"
 732              		.file 8 ".\\gripper_eeprom.h"