ARM GAS  C:\Users\plod1602\AppData\Local\Temp\ccIA5tD2.s 			page 1


   1              		.syntax unified
   2              		.cpu cortex-m3
   3              		.fpu softvfp
   4              		.eabi_attribute 20, 1
   5              		.eabi_attribute 21, 1
   6              		.eabi_attribute 23, 3
   7              		.eabi_attribute 24, 1
   8              		.eabi_attribute 25, 1
   9              		.eabi_attribute 26, 1
  10              		.eabi_attribute 30, 6
  11              		.eabi_attribute 34, 1
  12              		.eabi_attribute 18, 4
  13              		.thumb
  14              		.file	"dynamixelCom.c"
  15              		.text
  16              	.Ltext0:
  17              		.cfi_sections	.debug_frame
  18              		.comm	dynamixelReceivedBuffer,256,4
  19              		.global	dynamixelbufferPos
  20              		.bss
  21              		.align	1
  22              		.type	dynamixelbufferPos, %object
  23              		.size	dynamixelbufferPos, 2
  24              	dynamixelbufferPos:
  25 0000 0000     		.space	2
  26              		.global	dynamixelSendDataPos
  27              		.align	1
  28              		.type	dynamixelSendDataPos, %object
  29              		.size	dynamixelSendDataPos, 2
  30              	dynamixelSendDataPos:
  31 0002 0000     		.space	2
  32              		.comm	motorType,5,4
  33              		.section	.text.init_uart_dynamixel,"ax",%progbits
  34              		.align	2
  35              		.global	init_uart_dynamixel
  36              		.thumb
  37              		.thumb_func
  38              		.type	init_uart_dynamixel, %function
  39              	init_uart_dynamixel:
  40              	.LFB56:
  41              		.file 1 ".\\dynamixelCom.c"
   1:.\dynamixelCom.c **** 
   2:.\dynamixelCom.c **** #include "DynamixelCom.h"
   3:.\dynamixelCom.c **** 
   4:.\dynamixelCom.c **** void sendDynamixelDataToComputer(uint8 *packet);
   5:.\dynamixelCom.c **** 
   6:.\dynamixelCom.c **** 
   7:.\dynamixelCom.c **** // ------- VARIABLES RECEPTION DYNAMIXEL ---------
   8:.\dynamixelCom.c **** volatile uint8 dynamixelReceivedBuffer[256];
   9:.\dynamixelCom.c **** volatile int16 dynamixelbufferPos = 0;
  10:.\dynamixelCom.c **** uint16 dynamixelSendDataPos = 0;
  11:.\dynamixelCom.c **** extern uint8 treatingAddress;
  12:.\dynamixelCom.c **** // ----------------------------
  13:.\dynamixelCom.c **** 
  14:.\dynamixelCom.c **** uint8 motorType[];
  15:.\dynamixelCom.c **** 
  16:.\dynamixelCom.c **** 
ARM GAS  C:\Users\plod1602\AppData\Local\Temp\ccIA5tD2.s 			page 2


  17:.\dynamixelCom.c **** void init_uart_dynamixel() 
  18:.\dynamixelCom.c **** {
  42              		.loc 1 18 0
  43              		.cfi_startproc
  44              		@ args = 0, pretend = 0, frame = 0
  45              		@ frame_needed = 1, uses_anonymous_args = 0
  46 0000 80B5     		push	{r7, lr}
  47              		.cfi_def_cfa_offset 8
  48              		.cfi_offset 7, -8
  49              		.cfi_offset 14, -4
  50 0002 00AF     		add	r7, sp, #0
  51              		.cfi_def_cfa_register 7
  19:.\dynamixelCom.c ****     UART2DYNAMIXEL_Start();
  52              		.loc 1 19 0
  53 0004 FFF7FEFF 		bl	UART2DYNAMIXEL_Start
  20:.\dynamixelCom.c **** 	UART2DYNAMIXEL_ClearRxBuffer();
  54              		.loc 1 20 0
  55 0008 FFF7FEFF 		bl	UART2DYNAMIXEL_ClearRxBuffer
  21:.\dynamixelCom.c **** 	UART2DYNAMIXEL_ClearTxBuffer();  
  56              		.loc 1 21 0
  57 000c FFF7FEFF 		bl	UART2DYNAMIXEL_ClearTxBuffer
  22:.\dynamixelCom.c ****     isr_rx_interrupt_StartEx(isr_uart_rx_gripper);
  58              		.loc 1 22 0
  59 0010 0348     		ldr	r0, .L2
  60 0012 FFF7FEFF 		bl	isr_rx_interrupt_StartEx
  23:.\dynamixelCom.c ****     UART2DYNAMIXEL_EnableRxInt();
  61              		.loc 1 23 0
  62 0016 034B     		ldr	r3, .L2+4
  63 0018 0822     		movs	r2, #8
  64 001a 1A60     		str	r2, [r3]
  24:.\dynamixelCom.c **** }
  65              		.loc 1 24 0
  66 001c 80BD     		pop	{r7, pc}
  67              	.L3:
  68 001e 00BF     		.align	2
  69              	.L2:
  70 0020 00000000 		.word	isr_uart_rx_gripper
  71 0024 00E100E0 		.word	-536813312
  72              		.cfi_endproc
  73              	.LFE56:
  74              		.size	init_uart_dynamixel, .-init_uart_dynamixel
  75              		.section	.text.isr_uart_rx_gripper,"ax",%progbits
  76              		.align	2
  77              		.global	isr_uart_rx_gripper
  78              		.thumb
  79              		.thumb_func
  80              		.type	isr_uart_rx_gripper, %function
  81              	isr_uart_rx_gripper:
  82              	.LFB57:
  25:.\dynamixelCom.c **** 
  26:.\dynamixelCom.c **** 
  27:.\dynamixelCom.c **** // Interruption function for the RX UART (data sent by motors)
  28:.\dynamixelCom.c **** CY_ISR(isr_uart_rx_gripper)
  29:.\dynamixelCom.c **** {
  83              		.loc 1 29 0
  84              		.cfi_startproc
  85              		@ args = 0, pretend = 0, frame = 16
ARM GAS  C:\Users\plod1602\AppData\Local\Temp\ccIA5tD2.s 			page 3


  86              		@ frame_needed = 1, uses_anonymous_args = 0
  87 0000 90B5     		push	{r4, r7, lr}
  88              		.cfi_def_cfa_offset 12
  89              		.cfi_offset 4, -12
  90              		.cfi_offset 7, -8
  91              		.cfi_offset 14, -4
  92 0002 85B0     		sub	sp, sp, #20
  93              		.cfi_def_cfa_offset 32
  94 0004 00AF     		add	r7, sp, #0
  95              		.cfi_def_cfa_register 7
  30:.\dynamixelCom.c ****     // read one byte
  31:.\dynamixelCom.c ****     dynamixelbufferPos = (dynamixelbufferPos+1)%255;
  96              		.loc 1 31 0
  97 0006 2F4B     		ldr	r3, .L9
  98 0008 1B88     		ldrh	r3, [r3]	@ movhi
  99 000a 9BB2     		uxth	r3, r3
 100 000c 1BB2     		sxth	r3, r3
 101 000e 5A1C     		adds	r2, r3, #1
 102 0010 2D4B     		ldr	r3, .L9+4
 103 0012 82FB0301 		smull	r0, r1, r2, r3
 104 0016 5318     		adds	r3, r2, r1
 105 0018 D911     		asrs	r1, r3, #7
 106 001a D317     		asrs	r3, r2, #31
 107 001c C91A     		subs	r1, r1, r3
 108 001e 0B46     		mov	r3, r1
 109 0020 1B02     		lsls	r3, r3, #8
 110 0022 5B1A     		subs	r3, r3, r1
 111 0024 D11A     		subs	r1, r2, r3
 112 0026 8AB2     		uxth	r2, r1
 113 0028 264B     		ldr	r3, .L9
 114 002a 1A80     		strh	r2, [r3]	@ movhi
  32:.\dynamixelCom.c ****     dynamixelReceivedBuffer[dynamixelbufferPos] = UART2DYNAMIXEL_GetByte();
 115              		.loc 1 32 0
 116 002c 254B     		ldr	r3, .L9
 117 002e 1B88     		ldrh	r3, [r3]	@ movhi
 118 0030 9BB2     		uxth	r3, r3
 119 0032 1CB2     		sxth	r4, r3
 120 0034 FFF7FEFF 		bl	UART2DYNAMIXEL_GetByte
 121 0038 0346     		mov	r3, r0
 122 003a DAB2     		uxtb	r2, r3
 123 003c 234B     		ldr	r3, .L9+8
 124 003e 1A55     		strb	r2, [r3, r4]
  33:.\dynamixelCom.c ****     
  34:.\dynamixelCom.c ****     if (dynamixelbufferPos > 2)
 125              		.loc 1 34 0
 126 0040 204B     		ldr	r3, .L9
 127 0042 1B88     		ldrh	r3, [r3]	@ movhi
 128 0044 9BB2     		uxth	r3, r3
 129 0046 1BB2     		sxth	r3, r3
 130 0048 022B     		cmp	r3, #2
 131 004a 25DD     		ble	.L5
  35:.\dynamixelCom.c ****     {
  36:.\dynamixelCom.c ****         if (!(dynamixelbufferPos < (3 + dynamixelReceivedBuffer[3])))
 132              		.loc 1 36 0
 133 004c 1D4B     		ldr	r3, .L9
 134 004e 1B88     		ldrh	r3, [r3]	@ movhi
 135 0050 9BB2     		uxth	r3, r3
ARM GAS  C:\Users\plod1602\AppData\Local\Temp\ccIA5tD2.s 			page 4


 136 0052 1AB2     		sxth	r2, r3
 137 0054 1D4B     		ldr	r3, .L9+8
 138 0056 DB78     		ldrb	r3, [r3, #3]
 139 0058 DBB2     		uxtb	r3, r3
 140 005a 0333     		adds	r3, r3, #3
 141 005c 9A42     		cmp	r2, r3
 142 005e 2EDB     		blt	.L4
 143              	.LBB2:
  37:.\dynamixelCom.c ****         {
  38:.\dynamixelCom.c ****             while((UART2DYNAMIXEL_TXSTATUS_REG & UART2DYNAMIXEL_TX_STS_FIFO_FULL) != 0u)
 144              		.loc 1 38 0
 145 0060 00BF     		nop
 146              	.L7:
 147              		.loc 1 38 0 is_stmt 0 discriminator 1
 148 0062 1B4B     		ldr	r3, .L9+12
 149 0064 1B78     		ldrb	r3, [r3]
 150 0066 DBB2     		uxtb	r3, r3
 151 0068 03F00403 		and	r3, r3, #4
 152 006c 002B     		cmp	r3, #0
 153 006e F8D1     		bne	.L7
  39:.\dynamixelCom.c ****             {
  40:.\dynamixelCom.c ****                 // Wait for room in the FIFO 
  41:.\dynamixelCom.c ****             }
  42:.\dynamixelCom.c ****             
  43:.\dynamixelCom.c ****             uint8 tmp[10];
  44:.\dynamixelCom.c ****             memcpy ( &tmp, (const uint8*)dynamixelReceivedBuffer, 10 );
 154              		.loc 1 44 0 is_stmt 1
 155 0070 164A     		ldr	r2, .L9+8
 156 0072 3B1D     		adds	r3, r7, #4
 157 0074 1068     		ldr	r0, [r2]	@ unaligned
 158 0076 5168     		ldr	r1, [r2, #4]	@ unaligned
 159 0078 03C3     		stmia	r3!, {r0, r1}
 160 007a 1289     		ldrh	r2, [r2, #8]	@ unaligned
 161 007c 1A80     		strh	r2, [r3]	@ unaligned
  45:.\dynamixelCom.c ****             
  46:.\dynamixelCom.c ****             
  47:.\dynamixelCom.c ****             // TODO: ERROR HANDLING
  48:.\dynamixelCom.c ****             //if(dynamixelReceivedBuffer[dynamixelReceivedBuffer[3]+3] == dynamixelCalculateChecksu
  49:.\dynamixelCom.c ****             
  50:.\dynamixelCom.c ****             sendDynamixelDataToComputer(tmp);
 162              		.loc 1 50 0
 163 007e 3B1D     		adds	r3, r7, #4
 164 0080 1846     		mov	r0, r3
 165 0082 FFF7FEFF 		bl	sendDynamixelDataToComputer
  51:.\dynamixelCom.c ****             
  52:.\dynamixelCom.c ****             UART2DYNAMIXEL_ClearRxBuffer();
 166              		.loc 1 52 0
 167 0086 FFF7FEFF 		bl	UART2DYNAMIXEL_ClearRxBuffer
  53:.\dynamixelCom.c ****             UART2DYNAMIXEL_ClearTxBuffer(); 
 168              		.loc 1 53 0
 169 008a FFF7FEFF 		bl	UART2DYNAMIXEL_ClearTxBuffer
  54:.\dynamixelCom.c ****             dynamixelbufferPos = -1;
 170              		.loc 1 54 0
 171 008e 0D4B     		ldr	r3, .L9
 172 0090 4FF6FF72 		movw	r2, #65535
 173 0094 1A80     		strh	r2, [r3]	@ movhi
 174 0096 12E0     		b	.L4
ARM GAS  C:\Users\plod1602\AppData\Local\Temp\ccIA5tD2.s 			page 5


 175              	.L5:
 176              	.LBE2:
  55:.\dynamixelCom.c ****         }
  56:.\dynamixelCom.c ****     } else if(dynamixelbufferPos < 2) {
 177              		.loc 1 56 0
 178 0098 0A4B     		ldr	r3, .L9
 179 009a 1B88     		ldrh	r3, [r3]	@ movhi
 180 009c 9BB2     		uxth	r3, r3
 181 009e 1BB2     		sxth	r3, r3
 182 00a0 012B     		cmp	r3, #1
 183 00a2 0CDC     		bgt	.L4
  57:.\dynamixelCom.c ****         if (dynamixelReceivedBuffer[dynamixelbufferPos] != 0xff)
 184              		.loc 1 57 0
 185 00a4 074B     		ldr	r3, .L9
 186 00a6 1B88     		ldrh	r3, [r3]	@ movhi
 187 00a8 9BB2     		uxth	r3, r3
 188 00aa 1BB2     		sxth	r3, r3
 189 00ac 074A     		ldr	r2, .L9+8
 190 00ae D35C     		ldrb	r3, [r2, r3]
 191 00b0 DBB2     		uxtb	r3, r3
 192 00b2 FF2B     		cmp	r3, #255
 193 00b4 03D0     		beq	.L4
  58:.\dynamixelCom.c ****         {
  59:.\dynamixelCom.c ****             dynamixelbufferPos = -1;
 194              		.loc 1 59 0
 195 00b6 034B     		ldr	r3, .L9
 196 00b8 4FF6FF72 		movw	r2, #65535
 197 00bc 1A80     		strh	r2, [r3]	@ movhi
 198              	.L4:
  60:.\dynamixelCom.c ****         }
  61:.\dynamixelCom.c ****     }
  62:.\dynamixelCom.c **** }
 199              		.loc 1 62 0
 200 00be 1437     		adds	r7, r7, #20
 201              		.cfi_def_cfa_offset 12
 202 00c0 BD46     		mov	sp, r7
 203              		.cfi_def_cfa_register 13
 204              		@ sp needed
 205 00c2 90BD     		pop	{r4, r7, pc}
 206              	.L10:
 207              		.align	2
 208              	.L9:
 209 00c4 00000000 		.word	dynamixelbufferPos
 210 00c8 81808080 		.word	-2139062143
 211 00cc 00000000 		.word	dynamixelReceivedBuffer
 212 00d0 6B650040 		.word	1073767787
 213              		.cfi_endproc
 214              	.LFE57:
 215              		.size	isr_uart_rx_gripper, .-isr_uart_rx_gripper
 216              		.section	.text.sendPacketToDynamixel,"ax",%progbits
 217              		.align	2
 218              		.global	sendPacketToDynamixel
 219              		.thumb
 220              		.thumb_func
 221              		.type	sendPacketToDynamixel, %function
 222              	sendPacketToDynamixel:
 223              	.LFB58:
ARM GAS  C:\Users\plod1602\AppData\Local\Temp\ccIA5tD2.s 			page 6


  63:.\dynamixelCom.c **** 
  64:.\dynamixelCom.c **** 
  65:.\dynamixelCom.c **** void sendPacketToDynamixel(uint8 *packet)
  66:.\dynamixelCom.c **** {
 224              		.loc 1 66 0
 225              		.cfi_startproc
 226              		@ args = 0, pretend = 0, frame = 8
 227              		@ frame_needed = 1, uses_anonymous_args = 0
 228 0000 80B5     		push	{r7, lr}
 229              		.cfi_def_cfa_offset 8
 230              		.cfi_offset 7, -8
 231              		.cfi_offset 14, -4
 232 0002 82B0     		sub	sp, sp, #8
 233              		.cfi_def_cfa_offset 16
 234 0004 00AF     		add	r7, sp, #0
 235              		.cfi_def_cfa_register 7
 236 0006 7860     		str	r0, [r7, #4]
  67:.\dynamixelCom.c ****     // send data to dynamixel
  68:.\dynamixelCom.c ****     UART2DYNAMIXEL_PutArray(packet, 9);
 237              		.loc 1 68 0
 238 0008 7868     		ldr	r0, [r7, #4]
 239 000a 0921     		movs	r1, #9
 240 000c FFF7FEFF 		bl	UART2DYNAMIXEL_PutArray
  69:.\dynamixelCom.c ****     while(UART2DYNAMIXEL_GetTxBufferSize() != 0) {};
 241              		.loc 1 69 0
 242 0010 00BF     		nop
 243              	.L12:
 244              		.loc 1 69 0 is_stmt 0 discriminator 1
 245 0012 FFF7FEFF 		bl	UART2DYNAMIXEL_GetTxBufferSize
 246 0016 0346     		mov	r3, r0
 247 0018 002B     		cmp	r3, #0
 248 001a FAD1     		bne	.L12
  70:.\dynamixelCom.c ****     
  71:.\dynamixelCom.c ****     free(packet);
 249              		.loc 1 71 0 is_stmt 1
 250 001c 7868     		ldr	r0, [r7, #4]
 251 001e FFF7FEFF 		bl	free
  72:.\dynamixelCom.c **** }
 252              		.loc 1 72 0
 253 0022 0837     		adds	r7, r7, #8
 254              		.cfi_def_cfa_offset 8
 255 0024 BD46     		mov	sp, r7
 256              		.cfi_def_cfa_register 13
 257              		@ sp needed
 258 0026 80BD     		pop	{r7, pc}
 259              		.cfi_endproc
 260              	.LFE58:
 261              		.size	sendPacketToDynamixel, .-sendPacketToDynamixel
 262              		.section	.text.sendCanPacketToDynamixel,"ax",%progbits
 263              		.align	2
 264              		.global	sendCanPacketToDynamixel
 265              		.thumb
 266              		.thumb_func
 267              		.type	sendCanPacketToDynamixel, %function
 268              	sendCanPacketToDynamixel:
 269              	.LFB59:
  73:.\dynamixelCom.c **** 
ARM GAS  C:\Users\plod1602\AppData\Local\Temp\ccIA5tD2.s 			page 7


  74:.\dynamixelCom.c **** 
  75:.\dynamixelCom.c **** void sendCanPacketToDynamixel(uint8 *canPacket)
  76:.\dynamixelCom.c **** {
 270              		.loc 1 76 0
 271              		.cfi_startproc
 272              		@ args = 0, pretend = 0, frame = 32
 273              		@ frame_needed = 1, uses_anonymous_args = 0
 274 0000 80B5     		push	{r7, lr}
 275              		.cfi_def_cfa_offset 8
 276              		.cfi_offset 7, -8
 277              		.cfi_offset 14, -4
 278 0002 88B0     		sub	sp, sp, #32
 279              		.cfi_def_cfa_offset 40
 280 0004 00AF     		add	r7, sp, #0
 281              		.cfi_def_cfa_register 7
 282 0006 7860     		str	r0, [r7, #4]
  77:.\dynamixelCom.c ****     uint8 i;
  78:.\dynamixelCom.c ****     uint8 packet[20];
  79:.\dynamixelCom.c ****     
  80:.\dynamixelCom.c ****     packet[0] = 0xff;
 283              		.loc 1 80 0
 284 0008 FF23     		movs	r3, #255
 285 000a 3B72     		strb	r3, [r7, #8]
  81:.\dynamixelCom.c ****     packet[1] = 0xff;
 286              		.loc 1 81 0
 287 000c FF23     		movs	r3, #255
 288 000e 7B72     		strb	r3, [r7, #9]
  82:.\dynamixelCom.c ****     packet[2] = canPacket[1]; // ID MOTEUR
 289              		.loc 1 82 0
 290 0010 7B68     		ldr	r3, [r7, #4]
 291 0012 5B78     		ldrb	r3, [r3, #1]	@ zero_extendqisi2
 292 0014 BB72     		strb	r3, [r7, #10]
  83:.\dynamixelCom.c ****     packet[3] = canPacket[2]; // LENGTH
 293              		.loc 1 83 0
 294 0016 7B68     		ldr	r3, [r7, #4]
 295 0018 9B78     		ldrb	r3, [r3, #2]	@ zero_extendqisi2
 296 001a FB72     		strb	r3, [r7, #11]
  84:.\dynamixelCom.c ****     for(i=0; i < packet[3]; i++) {
 297              		.loc 1 84 0
 298 001c 0023     		movs	r3, #0
 299 001e FB77     		strb	r3, [r7, #31]
 300 0020 0FE0     		b	.L14
 301              	.L15:
  85:.\dynamixelCom.c ****        packet[4+i] = canPacket[3+i];
 302              		.loc 1 85 0 discriminator 3
 303 0022 FB7F     		ldrb	r3, [r7, #31]	@ zero_extendqisi2
 304 0024 0433     		adds	r3, r3, #4
 305 0026 FA7F     		ldrb	r2, [r7, #31]	@ zero_extendqisi2
 306 0028 0332     		adds	r2, r2, #3
 307 002a 1146     		mov	r1, r2
 308 002c 7A68     		ldr	r2, [r7, #4]
 309 002e 0A44     		add	r2, r2, r1
 310 0030 1278     		ldrb	r2, [r2]	@ zero_extendqisi2
 311 0032 07F12001 		add	r1, r7, #32
 312 0036 0B44     		add	r3, r3, r1
 313 0038 03F8182C 		strb	r2, [r3, #-24]
  84:.\dynamixelCom.c ****     for(i=0; i < packet[3]; i++) {
ARM GAS  C:\Users\plod1602\AppData\Local\Temp\ccIA5tD2.s 			page 8


 314              		.loc 1 84 0 discriminator 3
 315 003c FB7F     		ldrb	r3, [r7, #31]	@ zero_extendqisi2
 316 003e 0133     		adds	r3, r3, #1
 317 0040 FB77     		strb	r3, [r7, #31]
 318              	.L14:
  84:.\dynamixelCom.c ****     for(i=0; i < packet[3]; i++) {
 319              		.loc 1 84 0 is_stmt 0 discriminator 1
 320 0042 FB7A     		ldrb	r3, [r7, #11]	@ zero_extendqisi2
 321 0044 FA7F     		ldrb	r2, [r7, #31]	@ zero_extendqisi2
 322 0046 9A42     		cmp	r2, r3
 323 0048 EBD3     		bcc	.L15
  86:.\dynamixelCom.c ****     }
  87:.\dynamixelCom.c ****     
  88:.\dynamixelCom.c ****     // send data to dynamixel
  89:.\dynamixelCom.c ****     UART2DYNAMIXEL_PutArray(packet, 9);
 324              		.loc 1 89 0 is_stmt 1
 325 004a 07F10803 		add	r3, r7, #8
 326 004e 1846     		mov	r0, r3
 327 0050 0921     		movs	r1, #9
 328 0052 FFF7FEFF 		bl	UART2DYNAMIXEL_PutArray
  90:.\dynamixelCom.c ****     while(UART2DYNAMIXEL_GetTxBufferSize() != 0) {};
 329              		.loc 1 90 0
 330 0056 00BF     		nop
 331              	.L16:
 332              		.loc 1 90 0 is_stmt 0 discriminator 1
 333 0058 FFF7FEFF 		bl	UART2DYNAMIXEL_GetTxBufferSize
 334 005c 0346     		mov	r3, r0
 335 005e 002B     		cmp	r3, #0
 336 0060 FAD1     		bne	.L16
  91:.\dynamixelCom.c **** }
 337              		.loc 1 91 0 is_stmt 1
 338 0062 2037     		adds	r7, r7, #32
 339              		.cfi_def_cfa_offset 8
 340 0064 BD46     		mov	sp, r7
 341              		.cfi_def_cfa_register 13
 342              		@ sp needed
 343 0066 80BD     		pop	{r7, pc}
 344              		.cfi_endproc
 345              	.LFE59:
 346              		.size	sendCanPacketToDynamixel, .-sendCanPacketToDynamixel
 347              		.section	.text.sendDynamixelDataToComputer,"ax",%progbits
 348              		.align	2
 349              		.global	sendDynamixelDataToComputer
 350              		.thumb
 351              		.thumb_func
 352              		.type	sendDynamixelDataToComputer, %function
 353              	sendDynamixelDataToComputer:
 354              	.LFB60:
  92:.\dynamixelCom.c **** 
  93:.\dynamixelCom.c **** 
  94:.\dynamixelCom.c **** void sendDynamixelDataToComputer(uint8 *packet) 
  95:.\dynamixelCom.c **** {   
 355              		.loc 1 95 0
 356              		.cfi_startproc
 357              		@ args = 0, pretend = 0, frame = 32
 358              		@ frame_needed = 1, uses_anonymous_args = 0
 359 0000 80B5     		push	{r7, lr}
ARM GAS  C:\Users\plod1602\AppData\Local\Temp\ccIA5tD2.s 			page 9


 360              		.cfi_def_cfa_offset 8
 361              		.cfi_offset 7, -8
 362              		.cfi_offset 14, -4
 363 0002 88B0     		sub	sp, sp, #32
 364              		.cfi_def_cfa_offset 40
 365 0004 00AF     		add	r7, sp, #0
 366              		.cfi_def_cfa_register 7
 367 0006 7860     		str	r0, [r7, #4]
  96:.\dynamixelCom.c ****     CAN_MSG canMsg;
  97:.\dynamixelCom.c ****     uint8 i;
  98:.\dynamixelCom.c ****     
  99:.\dynamixelCom.c ****     // index        :  0    1      2         3        4
 100:.\dynamixelCom.c ****     // packet format: [ff] [ff] [MotorID] [Length] [ERROR] [.. data]
 101:.\dynamixelCom.c **** 
 102:.\dynamixelCom.c ****     // index        :   0            1            2         3
 103:.\dynamixelCom.c ****     // can format   : [ERROR] [TreatingFunc] [MotorID] [.. data]
 104:.\dynamixelCom.c ****     
 105:.\dynamixelCom.c ****     // test
 106:.\dynamixelCom.c ****     // T: [0] [2] [4] [2] [0] [2] [F5] [0]
 107:.\dynamixelCom.c ****     // R: [0] [2] [4] [0] [C] [0] [ED] [0]
 108:.\dynamixelCom.c ****     //  
 109:.\dynamixelCom.c ****     
 110:.\dynamixelCom.c ****     canMsg.msgBytes.byte[0] = packet[4];
 368              		.loc 1 110 0
 369 0008 7B68     		ldr	r3, [r7, #4]
 370 000a 1B79     		ldrb	r3, [r3, #4]	@ zero_extendqisi2
 371 000c 3B73     		strb	r3, [r7, #12]
 111:.\dynamixelCom.c ****     canMsg.msgBytes.byte[1] = CAN_HARDWARE_FILTER_ID;
 372              		.loc 1 111 0
 373 000e 3023     		movs	r3, #48
 374 0010 7B73     		strb	r3, [r7, #13]
 112:.\dynamixelCom.c ****     canMsg.msgBytes.byte[2] = treatingAddress; // Treating function
 375              		.loc 1 112 0
 376 0012 174B     		ldr	r3, .L20
 377 0014 1B78     		ldrb	r3, [r3]	@ zero_extendqisi2
 378 0016 BB73     		strb	r3, [r7, #14]
 113:.\dynamixelCom.c ****     canMsg.msgBytes.byte[3] = packet[2]; // ID MOTEUR
 379              		.loc 1 113 0
 380 0018 7B68     		ldr	r3, [r7, #4]
 381 001a 9B78     		ldrb	r3, [r3, #2]	@ zero_extendqisi2
 382 001c FB73     		strb	r3, [r7, #15]
 114:.\dynamixelCom.c ****     for(i=0; i < packet[3]-1; i++) {	// [data] [..] [data]
 383              		.loc 1 114 0
 384 001e 0023     		movs	r3, #0
 385 0020 FB77     		strb	r3, [r7, #31]
 386 0022 0FE0     		b	.L18
 387              	.L19:
 115:.\dynamixelCom.c ****        canMsg.msgBytes.byte[4+i] = packet[5+i];
 388              		.loc 1 115 0 discriminator 3
 389 0024 FB7F     		ldrb	r3, [r7, #31]	@ zero_extendqisi2
 390 0026 0433     		adds	r3, r3, #4
 391 0028 FA7F     		ldrb	r2, [r7, #31]	@ zero_extendqisi2
 392 002a 0532     		adds	r2, r2, #5
 393 002c 1146     		mov	r1, r2
 394 002e 7A68     		ldr	r2, [r7, #4]
 395 0030 0A44     		add	r2, r2, r1
 396 0032 1278     		ldrb	r2, [r2]	@ zero_extendqisi2
ARM GAS  C:\Users\plod1602\AppData\Local\Temp\ccIA5tD2.s 			page 10


 397 0034 07F12001 		add	r1, r7, #32
 398 0038 0B44     		add	r3, r3, r1
 399 003a 03F8142C 		strb	r2, [r3, #-20]
 114:.\dynamixelCom.c ****     for(i=0; i < packet[3]-1; i++) {	// [data] [..] [data]
 400              		.loc 1 114 0 discriminator 3
 401 003e FB7F     		ldrb	r3, [r7, #31]	@ zero_extendqisi2
 402 0040 0133     		adds	r3, r3, #1
 403 0042 FB77     		strb	r3, [r7, #31]
 404              	.L18:
 114:.\dynamixelCom.c ****     for(i=0; i < packet[3]-1; i++) {	// [data] [..] [data]
 405              		.loc 1 114 0 is_stmt 0 discriminator 1
 406 0044 FA7F     		ldrb	r2, [r7, #31]	@ zero_extendqisi2
 407 0046 7B68     		ldr	r3, [r7, #4]
 408 0048 0333     		adds	r3, r3, #3
 409 004a 1B78     		ldrb	r3, [r3]	@ zero_extendqisi2
 410 004c 013B     		subs	r3, r3, #1
 411 004e 9A42     		cmp	r2, r3
 412 0050 E8DB     		blt	.L19
 116:.\dynamixelCom.c ****     }
 117:.\dynamixelCom.c ****     i += 3;
 413              		.loc 1 117 0 is_stmt 1
 414 0052 FB7F     		ldrb	r3, [r7, #31]
 415 0054 0333     		adds	r3, r3, #3
 416 0056 FB77     		strb	r3, [r7, #31]
 118:.\dynamixelCom.c ****     canMsg.DLC = i; // number of bytes to send
 417              		.loc 1 118 0
 418 0058 FB7F     		ldrb	r3, [r7, #31]
 419 005a 3B75     		strb	r3, [r7, #20]
 119:.\dynamixelCom.c ****     
 120:.\dynamixelCom.c ****     can_sendMessage(&canMsg, CAN_COMPUTER_ID);
 420              		.loc 1 120 0
 421 005c 07F10C03 		add	r3, r7, #12
 422 0060 1846     		mov	r0, r3
 423 0062 FF21     		movs	r1, #255
 424 0064 FFF7FEFF 		bl	can_sendMessage
 121:.\dynamixelCom.c **** }
 425              		.loc 1 121 0
 426 0068 2037     		adds	r7, r7, #32
 427              		.cfi_def_cfa_offset 8
 428 006a BD46     		mov	sp, r7
 429              		.cfi_def_cfa_register 13
 430              		@ sp needed
 431 006c 80BD     		pop	{r7, pc}
 432              	.L21:
 433 006e 00BF     		.align	2
 434              	.L20:
 435 0070 00000000 		.word	treatingAddress
 436              		.cfi_endproc
 437              	.LFE60:
 438              		.size	sendDynamixelDataToComputer, .-sendDynamixelDataToComputer
 439              		.text
 440              	.Letext0:
 441              		.file 2 "c:\\program files (x86)\\cypress\\psoc creator\\3.3\\psoc creator\\import\\gnu\\arm\\4.9.
 442              		.file 3 "c:\\program files (x86)\\cypress\\psoc creator\\3.3\\psoc creator\\import\\gnu\\arm\\4.9.
 443              		.file 4 "Generated_Source\\PSoC5/cytypes.h"
 444              		.file 5 "Generated_Source\\PSoC5/CAN_1.h"
 445              		.file 6 ".\\CANCommunication.h"
ARM GAS  C:\Users\plod1602\AppData\Local\Temp\ccIA5tD2.s 			page 11


 446              		.file 7 "Generated_Source\\PSoC5/core_cm3.h"