ARM GAS  C:\Users\plod1602\AppData\Local\Temp\ccg8l0Rh.s 			page 1


   1              		.syntax unified
   2              		.cpu cortex-m3
   3              		.fpu softvfp
   4              		.eabi_attribute 20, 1
   5              		.eabi_attribute 21, 1
   6              		.eabi_attribute 23, 3
   7              		.eabi_attribute 24, 1
   8              		.eabi_attribute 25, 1
   9              		.eabi_attribute 26, 1
  10              		.eabi_attribute 30, 6
  11              		.eabi_attribute 34, 1
  12              		.eabi_attribute 18, 4
  13              		.thumb
  14              		.file	"main.c"
  15              		.text
  16              	.Ltext0:
  17              		.cfi_sections	.debug_frame
  18              		.global	messageToBeTreatedCount
  19              		.bss
  20              		.align	2
  21              		.type	messageToBeTreatedCount, %object
  22              		.size	messageToBeTreatedCount, 4
  23              	messageToBeTreatedCount:
  24 0000 00000000 		.space	4
  25              		.global	msgToBeTreatedIndex
  26              		.align	2
  27              		.type	msgToBeTreatedIndex, %object
  28              		.size	msgToBeTreatedIndex, 4
  29              	msgToBeTreatedIndex:
  30 0004 00000000 		.space	4
  31              		.global	msgToBeStoredIndex
  32              		.align	2
  33              		.type	msgToBeStoredIndex, %object
  34              		.size	msgToBeStoredIndex, 4
  35              	msgToBeStoredIndex:
  36 0008 00000000 		.space	4
  37              		.comm	receivedMsgs,800,4
  38              		.global	readCanMessage
  39              		.type	readCanMessage, %object
  40              		.size	readCanMessage, 1
  41              	readCanMessage:
  42 000c 00       		.space	1
  43              		.global	treatingAddress
  44              		.type	treatingAddress, %object
  45              		.size	treatingAddress, 1
  46              	treatingAddress:
  47 000d 00       		.space	1
  48 000e 0000     		.section	.text.treatCanMessage,"ax",%progbits
  49              		.align	2
  50              		.global	treatCanMessage
  51              		.thumb
  52              		.thumb_func
  53              		.type	treatCanMessage, %function
  54              	treatCanMessage:
  55              	.LFB56:
  56              		.file 1 ".\\main.c"
   1:.\main.c      **** /*******************************************************************************
ARM GAS  C:\Users\plod1602\AppData\Local\Temp\ccg8l0Rh.s 			page 2


   2:.\main.c      **** * Project Name:      module-gripper-psoc
   3:.\main.c      **** * Version:           1.0
   4:.\main.c      **** *
   5:.\main.c      **** * Device Used:       PSoC 5 CY8C5588AXI-LP035
   6:.\main.c      **** * Software Used:     PSoC Creator v3.3
   7:.\main.c      **** * Compiler Used:     ARM GCC 4.9-2015-q1-update
   8:.\main.c      **** ********************************************************************************
   9:.\main.c      **** * Theory of Operation:
  10:.\main.c      **** *
  11:.\main.c      **** *
  12:.\main.c      **** *******************************************************************************/
  13:.\main.c      **** #include "main.h"
  14:.\main.c      **** 
  15:.\main.c      **** 
  16:.\main.c      **** /* **************************************
  17:.\main.c      ****    MACROS
  18:.\main.c      ****  * *************************************/
  19:.\main.c      **** 
  20:.\main.c      **** #define SETCLOCK_4MHZ ControlReg_Write(ControlReg_Read() | 0x01)
  21:.\main.c      **** #define SETCLOCK_8MHZ ControlReg_Write(ControlReg_Read() & 0xFE)
  22:.\main.c      **** 
  23:.\main.c      **** /* **************************************
  24:.\main.c      ****    VARIABLES
  25:.\main.c      ****  * *************************************/
  26:.\main.c      **** 
  27:.\main.c      **** 
  28:.\main.c      **** // ------- VARIABLES CAN ---------
  29:.\main.c      **** int messageToBeTreatedCount = 0;
  30:.\main.c      **** int msgToBeTreatedIndex = 0;
  31:.\main.c      **** int msgToBeStoredIndex = 0;
  32:.\main.c      **** CAN_MSG receivedMsgs[MAX_MSG_BUFFER_SIZE];
  33:.\main.c      **** // ----------------------------
  34:.\main.c      **** 
  35:.\main.c      **** volatile uint8 readCanMessage = 0;
  36:.\main.c      **** uint8 treatingAddress = 0;
  37:.\main.c      **** 
  38:.\main.c      **** 
  39:.\main.c      **** 
  40:.\main.c      **** uint8 treatCanMessage(uint8* canPacket)
  41:.\main.c      **** {   
  57              		.loc 1 41 0
  58              		.cfi_startproc
  59              		@ args = 0, pretend = 0, frame = 16
  60              		@ frame_needed = 1, uses_anonymous_args = 0
  61 0000 90B5     		push	{r4, r7, lr}
  62              		.cfi_def_cfa_offset 12
  63              		.cfi_offset 4, -12
  64              		.cfi_offset 7, -8
  65              		.cfi_offset 14, -4
  66 0002 89B0     		sub	sp, sp, #36
  67              		.cfi_def_cfa_offset 48
  68 0004 04AF     		add	r7, sp, #16
  69              		.cfi_def_cfa 7, 32
  70 0006 7860     		str	r0, [r7, #4]
  42:.\main.c      ****     uint16 rightMotorPosition = 0;
  71              		.loc 1 42 0
  72 0008 0023     		movs	r3, #0
ARM GAS  C:\Users\plod1602\AppData\Local\Temp\ccg8l0Rh.s 			page 3


  73 000a FB81     		strh	r3, [r7, #14]	@ movhi
  43:.\main.c      ****     uint16 leftMotorPosition = 0;
  74              		.loc 1 43 0
  75 000c 0023     		movs	r3, #0
  76 000e BB81     		strh	r3, [r7, #12]	@ movhi
  44:.\main.c      ****     
  45:.\main.c      ****     switch(canPacket[0])
  77              		.loc 1 45 0
  78 0010 7B68     		ldr	r3, [r7, #4]
  79 0012 1B78     		ldrb	r3, [r3]	@ zero_extendqisi2
  80 0014 0E2B     		cmp	r3, #14
  81 0016 00F29181 		bhi	.L2
  82 001a 01A2     		adr	r2, .L4
  83 001c 52F823F0 		ldr	pc, [r2, r3, lsl #2]
  84              		.p2align 2
  85              	.L4:
  86 0020 5D000000 		.word	.L3+1
  87 0024 63000000 		.word	.L5+1
  88 0028 83000000 		.word	.L6+1
  89 002c A5010000 		.word	.L7+1
  90 0030 D5010000 		.word	.L8+1
  91 0034 05020000 		.word	.L9+1
  92 0038 49010000 		.word	.L10+1
  93 003c 77010000 		.word	.L11+1
  94 0040 19010000 		.word	.L12+1
  95 0044 23020000 		.word	.L13+1
  96 0048 51020000 		.word	.L14+1
  97 004c C3020000 		.word	.L15+1
  98 0050 D7020000 		.word	.L16+1
  99 0054 EB020000 		.word	.L17+1
 100 0058 1B030000 		.word	.L18+1
 101              		.p2align 1
 102              	.L3:
  46:.\main.c      ****     {
  47:.\main.c      ****         case CAN_INSTRUCTION_SET_Z_AXIS_HOME:
  48:.\main.c      ****             
  49:.\main.c      ****             Z_Axis_Home();
 103              		.loc 1 49 0
 104 005c FFF7FEFF 		bl	Z_Axis_Home
  50:.\main.c      ****             break;
 105              		.loc 1 50 0
 106 0060 6CE1     		b	.L2
 107              	.L5:
  51:.\main.c      ****         
  52:.\main.c      ****         case CAN_INSTRUCTION_SET_Z_AXIS_POSITION:
  53:.\main.c      ****             
  54:.\main.c      ****             Z_Axis_GoTo((uint16)(canPacket[6]<<8) | canPacket[7]);
 108              		.loc 1 54 0
 109 0062 7B68     		ldr	r3, [r7, #4]
 110 0064 0633     		adds	r3, r3, #6
 111 0066 1B78     		ldrb	r3, [r3]	@ zero_extendqisi2
 112 0068 9BB2     		uxth	r3, r3
 113 006a 1B02     		lsls	r3, r3, #8
 114 006c 9AB2     		uxth	r2, r3
 115 006e 7B68     		ldr	r3, [r7, #4]
 116 0070 0733     		adds	r3, r3, #7
 117 0072 1B78     		ldrb	r3, [r3]	@ zero_extendqisi2
ARM GAS  C:\Users\plod1602\AppData\Local\Temp\ccg8l0Rh.s 			page 4


 118 0074 9BB2     		uxth	r3, r3
 119 0076 1343     		orrs	r3, r3, r2
 120 0078 9BB2     		uxth	r3, r3
 121 007a 1846     		mov	r0, r3
 122 007c FFF7FEFF 		bl	Z_Axis_GoTo
  55:.\main.c      ****             break;
 123              		.loc 1 55 0
 124 0080 5CE1     		b	.L2
 125              	.L6:
  56:.\main.c      ****             
  57:.\main.c      ****         case CAN_INSTRUCTION_OPEN_GRIPPER:
  58:.\main.c      ****             
  59:.\main.c      ****             // canPacket[1]:
  60:.\main.c      ****             //      pourcentage of the openning
  61:.\main.c      ****             
  62:.\main.c      ****             rightMotorPosition = ((motorAngleLimits[MOTOR_RIGHT_ANGLE_CCW] - motorAngleLimits[MOTOR
 126              		.loc 1 62 0
 127 0082 B14B     		ldr	r3, .L23
 128 0084 DB88     		ldrh	r3, [r3, #6]
 129 0086 1A46     		mov	r2, r3
 130 0088 AF4B     		ldr	r3, .L23
 131 008a 9B88     		ldrh	r3, [r3, #4]
 132 008c D31A     		subs	r3, r2, r3
 133 008e 7A68     		ldr	r2, [r7, #4]
 134 0090 0132     		adds	r2, r2, #1
 135 0092 1278     		ldrb	r2, [r2]	@ zero_extendqisi2
 136 0094 02FB03F3 		mul	r3, r2, r3
 137 0098 AC4A     		ldr	r2, .L23+4
 138 009a 82FB0312 		smull	r1, r2, r2, r3
 139 009e 5211     		asrs	r2, r2, #5
 140 00a0 DB17     		asrs	r3, r3, #31
 141 00a2 D31A     		subs	r3, r2, r3
 142 00a4 9AB2     		uxth	r2, r3
 143 00a6 A84B     		ldr	r3, .L23
 144 00a8 9B88     		ldrh	r3, [r3, #4]
 145 00aa 1344     		add	r3, r3, r2
 146 00ac FB81     		strh	r3, [r7, #14]	@ movhi
  63:.\main.c      ****             leftMotorPosition  = ((motorAngleLimits[MOTOR_LEFT_ANGLE_CCW] - motorAngleLimits[MOTOR_
 147              		.loc 1 63 0
 148 00ae A64B     		ldr	r3, .L23
 149 00b0 5B88     		ldrh	r3, [r3, #2]
 150 00b2 1A46     		mov	r2, r3
 151 00b4 A44B     		ldr	r3, .L23
 152 00b6 1B88     		ldrh	r3, [r3]
 153 00b8 D31A     		subs	r3, r2, r3
 154 00ba 7A68     		ldr	r2, [r7, #4]
 155 00bc 0132     		adds	r2, r2, #1
 156 00be 1278     		ldrb	r2, [r2]	@ zero_extendqisi2
 157 00c0 C2F16402 		rsb	r2, r2, #100
 158 00c4 02FB03F3 		mul	r3, r2, r3
 159 00c8 A04A     		ldr	r2, .L23+4
 160 00ca 82FB0312 		smull	r1, r2, r2, r3
 161 00ce 5211     		asrs	r2, r2, #5
 162 00d0 DB17     		asrs	r3, r3, #31
 163 00d2 D31A     		subs	r3, r2, r3
 164 00d4 9AB2     		uxth	r2, r3
 165 00d6 9C4B     		ldr	r3, .L23
ARM GAS  C:\Users\plod1602\AppData\Local\Temp\ccg8l0Rh.s 			page 5


 166 00d8 1B88     		ldrh	r3, [r3]
 167 00da 1344     		add	r3, r3, r2
 168 00dc BB81     		strh	r3, [r7, #12]	@ movhi
  64:.\main.c      ****             
  65:.\main.c      ****             sendPacketToDynamixel(dynamixel_setPositionRegPacket(motorType[MOTOR_TYPE_RIGHT], right
 169              		.loc 1 65 0
 170 00de 9C4B     		ldr	r3, .L23+8
 171 00e0 DA78     		ldrb	r2, [r3, #3]	@ zero_extendqisi2
 172 00e2 FB89     		ldrh	r3, [r7, #14]
 173 00e4 1046     		mov	r0, r2
 174 00e6 1946     		mov	r1, r3
 175 00e8 FFF7FEFF 		bl	dynamixel_setPositionRegPacket
 176 00ec 0346     		mov	r3, r0
 177 00ee 1846     		mov	r0, r3
 178 00f0 FFF7FEFF 		bl	sendPacketToDynamixel
  66:.\main.c      ****             sendPacketToDynamixel(dynamixel_setPositionRegPacket(motorType[MOTOR_TYPE_LEFT], leftMo
 179              		.loc 1 66 0
 180 00f4 964B     		ldr	r3, .L23+8
 181 00f6 1A79     		ldrb	r2, [r3, #4]	@ zero_extendqisi2
 182 00f8 BB89     		ldrh	r3, [r7, #12]
 183 00fa 1046     		mov	r0, r2
 184 00fc 1946     		mov	r1, r3
 185 00fe FFF7FEFF 		bl	dynamixel_setPositionRegPacket
 186 0102 0346     		mov	r3, r0
 187 0104 1846     		mov	r0, r3
 188 0106 FFF7FEFF 		bl	sendPacketToDynamixel
  67:.\main.c      ****             sendPacketToDynamixel(dynamixel_getActionPacket());
 189              		.loc 1 67 0
 190 010a FFF7FEFF 		bl	dynamixel_getActionPacket
 191 010e 0346     		mov	r3, r0
 192 0110 1846     		mov	r0, r3
 193 0112 FFF7FEFF 		bl	sendPacketToDynamixel
  68:.\main.c      ****             break;
 194              		.loc 1 68 0
 195 0116 11E1     		b	.L2
 196              	.L12:
  69:.\main.c      ****             
  70:.\main.c      ****         case CAN_INSTRUCTION_MOVE:
  71:.\main.c      ****             
  72:.\main.c      ****             // canPacket[1]:
  73:.\main.c      ****             //      ID of the motor
  74:.\main.c      ****             // canPacket[2] & canPacket[3]:
  75:.\main.c      ****             //      Position of the motor (between 0 and 0x3ff)
  76:.\main.c      ****             
  77:.\main.c      ****             sendPacketToDynamixel(dynamixel_setPositionPacket(canPacket[1], (uint16)((canPacket[3]<
 197              		.loc 1 77 0
 198 0118 7B68     		ldr	r3, [r7, #4]
 199 011a 0133     		adds	r3, r3, #1
 200 011c 1978     		ldrb	r1, [r3]	@ zero_extendqisi2
 201 011e 7B68     		ldr	r3, [r7, #4]
 202 0120 0333     		adds	r3, r3, #3
 203 0122 1B78     		ldrb	r3, [r3]	@ zero_extendqisi2
 204 0124 9BB2     		uxth	r3, r3
 205 0126 1B02     		lsls	r3, r3, #8
 206 0128 9AB2     		uxth	r2, r3
 207 012a 7B68     		ldr	r3, [r7, #4]
 208 012c 0233     		adds	r3, r3, #2
ARM GAS  C:\Users\plod1602\AppData\Local\Temp\ccg8l0Rh.s 			page 6


 209 012e 1B78     		ldrb	r3, [r3]	@ zero_extendqisi2
 210 0130 9BB2     		uxth	r3, r3
 211 0132 1344     		add	r3, r3, r2
 212 0134 9BB2     		uxth	r3, r3
 213 0136 0846     		mov	r0, r1
 214 0138 1946     		mov	r1, r3
 215 013a FFF7FEFF 		bl	dynamixel_setPositionPacket
 216 013e 0346     		mov	r3, r0
 217 0140 1846     		mov	r0, r3
 218 0142 FFF7FEFF 		bl	sendPacketToDynamixel
  78:.\main.c      ****             break;
 219              		.loc 1 78 0
 220 0146 F9E0     		b	.L2
 221              	.L10:
  79:.\main.c      ****         
  80:.\main.c      ****         case CAN_INSTRUCTION_TILT:
  81:.\main.c      ****             
  82:.\main.c      ****             // canPacket[1] & canPacket[2]:
  83:.\main.c      ****             //      position of the motor
  84:.\main.c      **** 
  85:.\main.c      ****             sendPacketToDynamixel(dynamixel_setPositionPacket(motorType[MOTOR_TYPE_TILT], (uint16)(
 222              		.loc 1 85 0
 223 0148 814B     		ldr	r3, .L23+8
 224 014a 9978     		ldrb	r1, [r3, #2]	@ zero_extendqisi2
 225 014c 7B68     		ldr	r3, [r7, #4]
 226 014e 0233     		adds	r3, r3, #2
 227 0150 1B78     		ldrb	r3, [r3]	@ zero_extendqisi2
 228 0152 9BB2     		uxth	r3, r3
 229 0154 1B02     		lsls	r3, r3, #8
 230 0156 9AB2     		uxth	r2, r3
 231 0158 7B68     		ldr	r3, [r7, #4]
 232 015a 0133     		adds	r3, r3, #1
 233 015c 1B78     		ldrb	r3, [r3]	@ zero_extendqisi2
 234 015e 9BB2     		uxth	r3, r3
 235 0160 1344     		add	r3, r3, r2
 236 0162 9BB2     		uxth	r3, r3
 237 0164 0846     		mov	r0, r1
 238 0166 1946     		mov	r1, r3
 239 0168 FFF7FEFF 		bl	dynamixel_setPositionPacket
 240 016c 0346     		mov	r3, r0
 241 016e 1846     		mov	r0, r3
 242 0170 FFF7FEFF 		bl	sendPacketToDynamixel
  86:.\main.c      ****             break;
 243              		.loc 1 86 0
 244 0174 E2E0     		b	.L2
 245              	.L11:
  87:.\main.c      ****             
  88:.\main.c      ****         case CAN_INSTRUCTION_ROTATE:
  89:.\main.c      ****             
  90:.\main.c      ****             // canPacket[1] & canPacket[2]:
  91:.\main.c      ****             //      position of the motor
  92:.\main.c      ****             
  93:.\main.c      ****             sendPacketToDynamixel(dynamixel_setPositionPacket(motorType[MOTOR_TYPE_ROTATE], (uint16
 246              		.loc 1 93 0
 247 0176 764B     		ldr	r3, .L23+8
 248 0178 5978     		ldrb	r1, [r3, #1]	@ zero_extendqisi2
 249 017a 7B68     		ldr	r3, [r7, #4]
ARM GAS  C:\Users\plod1602\AppData\Local\Temp\ccg8l0Rh.s 			page 7


 250 017c 0233     		adds	r3, r3, #2
 251 017e 1B78     		ldrb	r3, [r3]	@ zero_extendqisi2
 252 0180 9BB2     		uxth	r3, r3
 253 0182 1B02     		lsls	r3, r3, #8
 254 0184 9AB2     		uxth	r2, r3
 255 0186 7B68     		ldr	r3, [r7, #4]
 256 0188 0133     		adds	r3, r3, #1
 257 018a 1B78     		ldrb	r3, [r3]	@ zero_extendqisi2
 258 018c 9BB2     		uxth	r3, r3
 259 018e 1344     		add	r3, r3, r2
 260 0190 9BB2     		uxth	r3, r3
 261 0192 0846     		mov	r0, r1
 262 0194 1946     		mov	r1, r3
 263 0196 FFF7FEFF 		bl	dynamixel_setPositionPacket
 264 019a 0346     		mov	r3, r0
 265 019c 1846     		mov	r0, r3
 266 019e FFF7FEFF 		bl	sendPacketToDynamixel
  94:.\main.c      ****             break;
 267              		.loc 1 94 0
 268 01a2 CBE0     		b	.L2
 269              	.L7:
  95:.\main.c      ****         
  96:.\main.c      ****         case CAN_INSTRUCTION_SET_MOVING_SPEED:
  97:.\main.c      ****             
  98:.\main.c      ****             // canPacket[1]:
  99:.\main.c      ****             //      ID of the motor
 100:.\main.c      ****             // canPacket[2] & canPacket[3]:
 101:.\main.c      ****             //      Moving speed of the motor (between 0 and 0x3ff)
 102:.\main.c      ****             
 103:.\main.c      ****             sendPacketToDynamixel(dynamixel_setMovingSpeedPacket(canPacket[1], (uint16)((canPacket[
 270              		.loc 1 103 0
 271 01a4 7B68     		ldr	r3, [r7, #4]
 272 01a6 0133     		adds	r3, r3, #1
 273 01a8 1978     		ldrb	r1, [r3]	@ zero_extendqisi2
 274 01aa 7B68     		ldr	r3, [r7, #4]
 275 01ac 0333     		adds	r3, r3, #3
 276 01ae 1B78     		ldrb	r3, [r3]	@ zero_extendqisi2
 277 01b0 9BB2     		uxth	r3, r3
 278 01b2 1B02     		lsls	r3, r3, #8
 279 01b4 9AB2     		uxth	r2, r3
 280 01b6 7B68     		ldr	r3, [r7, #4]
 281 01b8 0233     		adds	r3, r3, #2
 282 01ba 1B78     		ldrb	r3, [r3]	@ zero_extendqisi2
 283 01bc 9BB2     		uxth	r3, r3
 284 01be 1344     		add	r3, r3, r2
 285 01c0 9BB2     		uxth	r3, r3
 286 01c2 0846     		mov	r0, r1
 287 01c4 1946     		mov	r1, r3
 288 01c6 FFF7FEFF 		bl	dynamixel_setMovingSpeedPacket
 289 01ca 0346     		mov	r3, r0
 290 01cc 1846     		mov	r0, r3
 291 01ce FFF7FEFF 		bl	sendPacketToDynamixel
 104:.\main.c      ****             break;
 292              		.loc 1 104 0
 293 01d2 B3E0     		b	.L2
 294              	.L8:
 105:.\main.c      ****             
ARM GAS  C:\Users\plod1602\AppData\Local\Temp\ccg8l0Rh.s 			page 8


 106:.\main.c      ****         case CAN_INSTRUCTION_SET_TORQUE:
 107:.\main.c      ****             
 108:.\main.c      ****             // canPacket[1]:
 109:.\main.c      ****             //      ID of the motor
 110:.\main.c      ****             // canPacket[2] & canPacket[3]:
 111:.\main.c      ****             //      Torque of the motor (between 0 and 0x3ff)
 112:.\main.c      ****             
 113:.\main.c      ****             sendPacketToDynamixel(dynamixel_setTorquePacket(canPacket[1], (uint16)((canPacket[3]<<8
 295              		.loc 1 113 0
 296 01d4 7B68     		ldr	r3, [r7, #4]
 297 01d6 0133     		adds	r3, r3, #1
 298 01d8 1978     		ldrb	r1, [r3]	@ zero_extendqisi2
 299 01da 7B68     		ldr	r3, [r7, #4]
 300 01dc 0333     		adds	r3, r3, #3
 301 01de 1B78     		ldrb	r3, [r3]	@ zero_extendqisi2
 302 01e0 9BB2     		uxth	r3, r3
 303 01e2 1B02     		lsls	r3, r3, #8
 304 01e4 9AB2     		uxth	r2, r3
 305 01e6 7B68     		ldr	r3, [r7, #4]
 306 01e8 0233     		adds	r3, r3, #2
 307 01ea 1B78     		ldrb	r3, [r3]	@ zero_extendqisi2
 308 01ec 9BB2     		uxth	r3, r3
 309 01ee 1344     		add	r3, r3, r2
 310 01f0 9BB2     		uxth	r3, r3
 311 01f2 0846     		mov	r0, r1
 312 01f4 1946     		mov	r1, r3
 313 01f6 FFF7FEFF 		bl	dynamixel_setTorquePacket
 314 01fa 0346     		mov	r3, r0
 315 01fc 1846     		mov	r0, r3
 316 01fe FFF7FEFF 		bl	sendPacketToDynamixel
 114:.\main.c      ****             break;
 317              		.loc 1 114 0
 318 0202 9BE0     		b	.L2
 319              	.L9:
 115:.\main.c      ****             
 116:.\main.c      ****         case CAN_INSTRUCTION_SET_TORQUE_ENABLE:
 117:.\main.c      ****             
 118:.\main.c      ****             // canPacket[1]: 
 119:.\main.c      ****             //      ID of the motor
 120:.\main.c      ****             //
 121:.\main.c      ****             // canPacket[2]: 
 122:.\main.c      ****             //      0 means no torque
 123:.\main.c      ****             //      1 means apply torque
 124:.\main.c      ****             
 125:.\main.c      ****             sendPacketToDynamixel(dynamixel_setTorqueEnablePacket(canPacket[1], canPacket[2]));
 320              		.loc 1 125 0
 321 0204 7B68     		ldr	r3, [r7, #4]
 322 0206 0133     		adds	r3, r3, #1
 323 0208 1A78     		ldrb	r2, [r3]	@ zero_extendqisi2
 324 020a 7B68     		ldr	r3, [r7, #4]
 325 020c 0233     		adds	r3, r3, #2
 326 020e 1B78     		ldrb	r3, [r3]	@ zero_extendqisi2
 327 0210 1046     		mov	r0, r2
 328 0212 1946     		mov	r1, r3
 329 0214 FFF7FEFF 		bl	dynamixel_setTorqueEnablePacket
 330 0218 0346     		mov	r3, r0
 331 021a 1846     		mov	r0, r3
ARM GAS  C:\Users\plod1602\AppData\Local\Temp\ccg8l0Rh.s 			page 9


 332 021c FFF7FEFF 		bl	sendPacketToDynamixel
 126:.\main.c      ****             break;
 333              		.loc 1 126 0
 334 0220 8CE0     		b	.L2
 335              	.L13:
 127:.\main.c      ****             
 128:.\main.c      ****         case CAN_INSTRUCTION_GET_DATA:
 129:.\main.c      **** 			
 130:.\main.c      **** 			// canPacket[1]:
 131:.\main.c      **** 			//		ID of the motor
 132:.\main.c      **** 		    // canPacket[2]: 
 133:.\main.c      **** 			//      address of the first data in the dynamixel table
 134:.\main.c      **** 			// canPacket[3]:
 135:.\main.c      **** 			//		number of byte to retreive (max of 4)
 136:.\main.c      **** 			
 137:.\main.c      **** 			treatingAddress = canPacket[2];
 336              		.loc 1 137 0
 337 0222 7B68     		ldr	r3, [r7, #4]
 338 0224 9A78     		ldrb	r2, [r3, #2]	@ zero_extendqisi2
 339 0226 4B4B     		ldr	r3, .L23+12
 340 0228 1A70     		strb	r2, [r3]
 138:.\main.c      **** 			sendPacketToDynamixel(dynamixel_getReadPacket(canPacket[1], canPacket[2], canPacket[3]));
 341              		.loc 1 138 0
 342 022a 7B68     		ldr	r3, [r7, #4]
 343 022c 0133     		adds	r3, r3, #1
 344 022e 1978     		ldrb	r1, [r3]	@ zero_extendqisi2
 345 0230 7B68     		ldr	r3, [r7, #4]
 346 0232 0233     		adds	r3, r3, #2
 347 0234 1A78     		ldrb	r2, [r3]	@ zero_extendqisi2
 348 0236 7B68     		ldr	r3, [r7, #4]
 349 0238 0333     		adds	r3, r3, #3
 350 023a 1B78     		ldrb	r3, [r3]	@ zero_extendqisi2
 351 023c 0846     		mov	r0, r1
 352 023e 1146     		mov	r1, r2
 353 0240 1A46     		mov	r2, r3
 354 0242 FFF7FEFF 		bl	dynamixel_getReadPacket
 355 0246 0346     		mov	r3, r0
 356 0248 1846     		mov	r0, r3
 357 024a FFF7FEFF 		bl	sendPacketToDynamixel
 139:.\main.c      **** 			break;
 358              		.loc 1 139 0
 359 024e 75E0     		b	.L2
 360              	.L14:
 140:.\main.c      ****         
 141:.\main.c      ****         case CAN_INSTRUCTION_SET_DATA:
 142:.\main.c      ****             
 143:.\main.c      **** 		    // canPacket[1]: 
 144:.\main.c      **** 			//      ID of the motor
 145:.\main.c      **** 			// canPacket[2]:
 146:.\main.c      **** 			//		address of the first data in the dynamixel table
 147:.\main.c      **** 			// canPacket[3]:
 148:.\main.c      **** 			//		number of byte to retreive (max of 2)
 149:.\main.c      ****             // canPacket[4] & canPacket[5]:
 150:.\main.c      ****             //      data to push to the motor
 151:.\main.c      ****             
 152:.\main.c      ****             switch(canPacket[3]) 
 361              		.loc 1 152 0
ARM GAS  C:\Users\plod1602\AppData\Local\Temp\ccg8l0Rh.s 			page 10


 362 0250 7B68     		ldr	r3, [r7, #4]
 363 0252 0333     		adds	r3, r3, #3
 364 0254 1B78     		ldrb	r3, [r3]	@ zero_extendqisi2
 365 0256 012B     		cmp	r3, #1
 366 0258 02D0     		beq	.L20
 367 025a 022B     		cmp	r3, #2
 368 025c 13D0     		beq	.L21
 153:.\main.c      ****             {
 154:.\main.c      ****                 case 1:
 155:.\main.c      ****                     sendPacketToDynamixel(dynamixel_setByte(canPacket[1], canPacket[2], canPacket[4
 156:.\main.c      ****                     break;
 157:.\main.c      ****                 case 2:
 158:.\main.c      ****                     updateAngleLimitData(canPacket);
 159:.\main.c      ****                     sendPacketToDynamixel(dynamixel_set2Bytes(canPacket[1], canPacket[2], (canPacke
 160:.\main.c      ****                     break;
 161:.\main.c      ****             }
 162:.\main.c      ****             
 163:.\main.c      ****             break;
 369              		.loc 1 163 0
 370 025e 6DE0     		b	.L2
 371              	.L20:
 155:.\main.c      ****                     break;
 372              		.loc 1 155 0
 373 0260 7B68     		ldr	r3, [r7, #4]
 374 0262 0133     		adds	r3, r3, #1
 375 0264 1978     		ldrb	r1, [r3]	@ zero_extendqisi2
 376 0266 7B68     		ldr	r3, [r7, #4]
 377 0268 0233     		adds	r3, r3, #2
 378 026a 1A78     		ldrb	r2, [r3]	@ zero_extendqisi2
 379 026c 7B68     		ldr	r3, [r7, #4]
 380 026e 0433     		adds	r3, r3, #4
 381 0270 1B78     		ldrb	r3, [r3]	@ zero_extendqisi2
 382 0272 0846     		mov	r0, r1
 383 0274 1146     		mov	r1, r2
 384 0276 1A46     		mov	r2, r3
 385 0278 FFF7FEFF 		bl	dynamixel_setByte
 386 027c 0346     		mov	r3, r0
 387 027e 1846     		mov	r0, r3
 388 0280 FFF7FEFF 		bl	sendPacketToDynamixel
 156:.\main.c      ****                 case 2:
 389              		.loc 1 156 0
 390 0284 1CE0     		b	.L19
 391              	.L21:
 158:.\main.c      ****                     sendPacketToDynamixel(dynamixel_set2Bytes(canPacket[1], canPacket[2], (canPacke
 392              		.loc 1 158 0
 393 0286 7868     		ldr	r0, [r7, #4]
 394 0288 FFF7FEFF 		bl	updateAngleLimitData
 159:.\main.c      ****                     break;
 395              		.loc 1 159 0
 396 028c 7B68     		ldr	r3, [r7, #4]
 397 028e 0133     		adds	r3, r3, #1
 398 0290 1878     		ldrb	r0, [r3]	@ zero_extendqisi2
 399 0292 7B68     		ldr	r3, [r7, #4]
 400 0294 0233     		adds	r3, r3, #2
 401 0296 1978     		ldrb	r1, [r3]	@ zero_extendqisi2
 402 0298 7B68     		ldr	r3, [r7, #4]
 403 029a 0533     		adds	r3, r3, #5
ARM GAS  C:\Users\plod1602\AppData\Local\Temp\ccg8l0Rh.s 			page 11


 404 029c 1B78     		ldrb	r3, [r3]	@ zero_extendqisi2
 405 029e 9BB2     		uxth	r3, r3
 406 02a0 1B02     		lsls	r3, r3, #8
 407 02a2 9AB2     		uxth	r2, r3
 408 02a4 7B68     		ldr	r3, [r7, #4]
 409 02a6 0433     		adds	r3, r3, #4
 410 02a8 1B78     		ldrb	r3, [r3]	@ zero_extendqisi2
 411 02aa 9BB2     		uxth	r3, r3
 412 02ac 1344     		add	r3, r3, r2
 413 02ae 9BB2     		uxth	r3, r3
 414 02b0 1A46     		mov	r2, r3
 415 02b2 FFF7FEFF 		bl	dynamixel_set2Bytes
 416 02b6 0346     		mov	r3, r0
 417 02b8 1846     		mov	r0, r3
 418 02ba FFF7FEFF 		bl	sendPacketToDynamixel
 160:.\main.c      ****             }
 419              		.loc 1 160 0
 420 02be 00BF     		nop
 421              	.L19:
 422              		.loc 1 163 0
 423 02c0 3CE0     		b	.L2
 424              	.L15:
 164:.\main.c      ****             
 165:.\main.c      ****         case CAN_INSTRUCTION_CLOCK_4M:
 166:.\main.c      ****             
 167:.\main.c      ****             SETCLOCK_4MHZ;
 425              		.loc 1 167 0
 426 02c2 FFF7FEFF 		bl	ControlReg_Read
 427 02c6 0346     		mov	r3, r0
 428 02c8 43F00103 		orr	r3, r3, #1
 429 02cc DBB2     		uxtb	r3, r3
 430 02ce 1846     		mov	r0, r3
 431 02d0 FFF7FEFF 		bl	ControlReg_Write
 168:.\main.c      ****             break;
 432              		.loc 1 168 0
 433 02d4 32E0     		b	.L2
 434              	.L16:
 169:.\main.c      ****             
 170:.\main.c      ****         case CAN_INSTRUCTION_CLOCK_8M:
 171:.\main.c      ****             
 172:.\main.c      ****             SETCLOCK_8MHZ;
 435              		.loc 1 172 0
 436 02d6 FFF7FEFF 		bl	ControlReg_Read
 437 02da 0346     		mov	r3, r0
 438 02dc 23F00103 		bic	r3, r3, #1
 439 02e0 DBB2     		uxtb	r3, r3
 440 02e2 1846     		mov	r0, r3
 441 02e4 FFF7FEFF 		bl	ControlReg_Write
 173:.\main.c      ****             break;
 442              		.loc 1 173 0
 443 02e8 28E0     		b	.L2
 444              	.L17:
 174:.\main.c      ****             
 175:.\main.c      ****         case CAN_INSTRUCTION_GET_MOTOR_TYPE:
 176:.\main.c      ****             
 177:.\main.c      **** 		    // canPacket[1]: 
 178:.\main.c      **** 			//      ID of the motor
ARM GAS  C:\Users\plod1602\AppData\Local\Temp\ccg8l0Rh.s 			page 12


 179:.\main.c      **** 			
 180:.\main.c      ****             sendDataToCAN(0,CAN_HARDWARE_FILTER_ID, CAN_INSTRUCTION_GET_MOTOR_TYPE, canPacket[1], g
 445              		.loc 1 180 0
 446 02ea 7B68     		ldr	r3, [r7, #4]
 447 02ec 0133     		adds	r3, r3, #1
 448 02ee 1C78     		ldrb	r4, [r3]	@ zero_extendqisi2
 449 02f0 7B68     		ldr	r3, [r7, #4]
 450 02f2 0133     		adds	r3, r3, #1
 451 02f4 1B78     		ldrb	r3, [r3]	@ zero_extendqisi2
 452 02f6 1846     		mov	r0, r3
 453 02f8 FFF7FEFF 		bl	getMotorType
 454 02fc 0346     		mov	r3, r0
 455 02fe 0093     		str	r3, [sp]
 456 0300 0023     		movs	r3, #0
 457 0302 0193     		str	r3, [sp, #4]
 458 0304 0023     		movs	r3, #0
 459 0306 0293     		str	r3, [sp, #8]
 460 0308 0023     		movs	r3, #0
 461 030a 0393     		str	r3, [sp, #12]
 462 030c 0020     		movs	r0, #0
 463 030e 3021     		movs	r1, #48
 464 0310 0D22     		movs	r2, #13
 465 0312 2346     		mov	r3, r4
 466 0314 FFF7FEFF 		bl	sendDataToCAN
 181:.\main.c      ****             break;
 467              		.loc 1 181 0
 468 0318 10E0     		b	.L2
 469              	.L18:
 182:.\main.c      ****             
 183:.\main.c      ****         case CAN_INSTRUCTION_SET_MOTOR_TYPE:
 184:.\main.c      ****             
 185:.\main.c      ****             // canPacket[1]: 
 186:.\main.c      **** 			//      ID of the motor
 187:.\main.c      ****             // canPacket[2]: 
 188:.\main.c      **** 			//      Motor type (0 to 4)
 189:.\main.c      ****             
 190:.\main.c      ****             eraseMotorType(canPacket[1]);
 470              		.loc 1 190 0
 471 031a 7B68     		ldr	r3, [r7, #4]
 472 031c 0133     		adds	r3, r3, #1
 473 031e 1B78     		ldrb	r3, [r3]	@ zero_extendqisi2
 474 0320 1846     		mov	r0, r3
 475 0322 FFF7FEFF 		bl	eraseMotorType
 191:.\main.c      ****             saveMotorType(canPacket[1], canPacket[2]);
 476              		.loc 1 191 0
 477 0326 7B68     		ldr	r3, [r7, #4]
 478 0328 0133     		adds	r3, r3, #1
 479 032a 1A78     		ldrb	r2, [r3]	@ zero_extendqisi2
 480 032c 7B68     		ldr	r3, [r7, #4]
 481 032e 0233     		adds	r3, r3, #2
 482 0330 1B78     		ldrb	r3, [r3]	@ zero_extendqisi2
 483 0332 1046     		mov	r0, r2
 484 0334 1946     		mov	r1, r3
 485 0336 FFF7FEFF 		bl	saveMotorType
 192:.\main.c      ****             break;
 486              		.loc 1 192 0
 487 033a 00BF     		nop
ARM GAS  C:\Users\plod1602\AppData\Local\Temp\ccg8l0Rh.s 			page 13


 488              	.L2:
 193:.\main.c      ****             
 194:.\main.c      ****     }
 195:.\main.c      ****     return 0;
 489              		.loc 1 195 0
 490 033c 0023     		movs	r3, #0
 196:.\main.c      **** }
 491              		.loc 1 196 0
 492 033e 1846     		mov	r0, r3
 493 0340 1437     		adds	r7, r7, #20
 494              		.cfi_def_cfa_offset 12
 495 0342 BD46     		mov	sp, r7
 496              		.cfi_def_cfa_register 13
 497              		@ sp needed
 498 0344 90BD     		pop	{r4, r7, pc}
 499              	.L24:
 500 0346 00BF     		.align	2
 501              	.L23:
 502 0348 00000000 		.word	motorAngleLimits
 503 034c 1F85EB51 		.word	1374389535
 504 0350 00000000 		.word	motorType
 505 0354 00000000 		.word	treatingAddress
 506              		.cfi_endproc
 507              	.LFE56:
 508              		.size	treatCanMessage, .-treatCanMessage
 509              		.section	.text.CounterCanInterruptHandler,"ax",%progbits
 510              		.align	2
 511              		.global	CounterCanInterruptHandler
 512              		.thumb
 513              		.thumb_func
 514              		.type	CounterCanInterruptHandler, %function
 515              	CounterCanInterruptHandler:
 516              	.LFB57:
 197:.\main.c      **** 
 198:.\main.c      **** /*******************************************************************************
 199:.\main.c      **** * COUNTER CAN READER INTERRUPT ROUTINE
 200:.\main.c      **** ********************************************************************************/
 201:.\main.c      **** CY_ISR(CounterCanInterruptHandler)
 202:.\main.c      **** {
 517              		.loc 1 202 0
 518              		.cfi_startproc
 519              		@ args = 0, pretend = 0, frame = 0
 520              		@ frame_needed = 1, uses_anonymous_args = 0
 521              		@ link register save eliminated.
 522 0000 80B4     		push	{r7}
 523              		.cfi_def_cfa_offset 4
 524              		.cfi_offset 7, -4
 525 0002 00AF     		add	r7, sp, #0
 526              		.cfi_def_cfa_register 7
 203:.\main.c      **** 	/* Read Status register in order to clear the sticky Terminal Count (TC) bit 
 204:.\main.c      **** 	 * in the status register. 
 205:.\main.c      ****      */
 206:.\main.c      ****     Counter_CanReader_STATUS;
 527              		.loc 1 206 0
 528 0004 044B     		ldr	r3, .L26
 529 0006 1B78     		ldrb	r3, [r3]
 207:.\main.c      ****     readCanMessage = 1;
ARM GAS  C:\Users\plod1602\AppData\Local\Temp\ccg8l0Rh.s 			page 14


 530              		.loc 1 207 0
 531 0008 044B     		ldr	r3, .L26+4
 532 000a 0122     		movs	r2, #1
 533 000c 1A70     		strb	r2, [r3]
 208:.\main.c      **** }
 534              		.loc 1 208 0
 535 000e BD46     		mov	sp, r7
 536              		.cfi_def_cfa_register 13
 537              		@ sp needed
 538 0010 5DF8047B 		ldr	r7, [sp], #4
 539              		.cfi_restore 7
 540              		.cfi_def_cfa_offset 0
 541 0014 7047     		bx	lr
 542              	.L27:
 543 0016 00BF     		.align	2
 544              	.L26:
 545 0018 034F0040 		.word	1073762051
 546 001c 00000000 		.word	readCanMessage
 547              		.cfi_endproc
 548              	.LFE57:
 549              		.size	CounterCanInterruptHandler, .-CounterCanInterruptHandler
 550              		.section	.text.main,"ax",%progbits
 551              		.align	2
 552              		.global	main
 553              		.thumb
 554              		.thumb_func
 555              		.type	main, %function
 556              	main:
 557              	.LFB58:
 209:.\main.c      **** 
 210:.\main.c      **** 
 211:.\main.c      **** int main()
 212:.\main.c      **** {
 558              		.loc 1 212 0
 559              		.cfi_startproc
 560              		@ args = 0, pretend = 0, frame = 16
 561              		@ frame_needed = 1, uses_anonymous_args = 0
 562 0000 80B5     		push	{r7, lr}
 563              		.cfi_def_cfa_offset 8
 564              		.cfi_offset 7, -8
 565              		.cfi_offset 14, -4
 566 0002 84B0     		sub	sp, sp, #16
 567              		.cfi_def_cfa_offset 24
 568 0004 00AF     		add	r7, sp, #0
 569              		.cfi_def_cfa_register 7
 213:.\main.c      ****     init_eeprom();
 570              		.loc 1 213 0
 571 0006 FFF7FEFF 		bl	init_eeprom
 214:.\main.c      ****     readEeprom();
 572              		.loc 1 214 0
 573 000a FFF7FEFF 		bl	readEeprom
 215:.\main.c      ****     
 216:.\main.c      ****     init_uart_dynamixel();
 574              		.loc 1 216 0
 575 000e FFF7FEFF 		bl	init_uart_dynamixel
 217:.\main.c      ****     init_can_module();
 576              		.loc 1 217 0
ARM GAS  C:\Users\plod1602\AppData\Local\Temp\ccg8l0Rh.s 			page 15


 577 0012 FFF7FEFF 		bl	init_can_module
 218:.\main.c      ****     Z_Axis_Init();
 578              		.loc 1 218 0
 579 0016 FFF7FEFF 		bl	Z_Axis_Init
 219:.\main.c      ****     
 220:.\main.c      ****     SETCLOCK_4MHZ;
 580              		.loc 1 220 0
 581 001a FFF7FEFF 		bl	ControlReg_Read
 582 001e 0346     		mov	r3, r0
 583 0020 43F00103 		orr	r3, r3, #1
 584 0024 DBB2     		uxtb	r3, r3
 585 0026 1846     		mov	r0, r3
 586 0028 FFF7FEFF 		bl	ControlReg_Write
 221:.\main.c      ****     CyGlobalIntEnable; // Enable Global Interrupts
 587              		.loc 1 221 0
 588              	@ 221 ".\main.c" 1
 589 002c 62B6     		CPSIE   i
 590              	@ 0 "" 2
 591              		.thumb
 592              	.L30:
 222:.\main.c      **** 
 223:.\main.c      **** 	for(;;){
 224:.\main.c      ****         
 225:.\main.c      ****         
 226:.\main.c      ****         //Verify if a message needs to be treated in the message received buffer.       
 227:.\main.c      ****         if(readCanMessage == 1 && messageToBeTreatedCount > 0)
 593              		.loc 1 227 0
 594 002e 0A4B     		ldr	r3, .L31
 595 0030 1B78     		ldrb	r3, [r3]
 596 0032 DBB2     		uxtb	r3, r3
 597 0034 012B     		cmp	r3, #1
 598 0036 0ED1     		bne	.L29
 599              		.loc 1 227 0 is_stmt 0 discriminator 1
 600 0038 084B     		ldr	r3, .L31+4
 601 003a 1B68     		ldr	r3, [r3]
 602 003c 002B     		cmp	r3, #0
 603 003e 0ADD     		ble	.L29
 604              	.LBB2:
 228:.\main.c      ****         {
 229:.\main.c      ****             readCanMessage = 0;
 605              		.loc 1 229 0 is_stmt 1
 606 0040 054B     		ldr	r3, .L31
 607 0042 0022     		movs	r2, #0
 608 0044 1A70     		strb	r2, [r3]
 230:.\main.c      ****             // Treat the last message received and echo it back on the CAN bus as an acknowledgemen
 231:.\main.c      ****             CAN_MSG msgToTreat = can_getReceivedMessage(); 
 609              		.loc 1 231 0
 610 0046 3B46     		mov	r3, r7
 611 0048 1846     		mov	r0, r3
 612 004a FFF7FEFF 		bl	can_getReceivedMessage
 232:.\main.c      ****             treatCanMessage(msgToTreat.msgBytes.byte);
 613              		.loc 1 232 0
 614 004e 3B46     		mov	r3, r7
 615 0050 1846     		mov	r0, r3
 616 0052 FFF7FEFF 		bl	treatCanMessage
 617              	.L29:
 618              	.LBE2:
ARM GAS  C:\Users\plod1602\AppData\Local\Temp\ccg8l0Rh.s 			page 16


 233:.\main.c      ****         }//*/
 234:.\main.c      ****     
 235:.\main.c      ****     }
 619              		.loc 1 235 0 discriminator 1
 620 0056 EAE7     		b	.L30
 621              	.L32:
 622              		.align	2
 623              	.L31:
 624 0058 00000000 		.word	readCanMessage
 625 005c 00000000 		.word	messageToBeTreatedCount
 626              		.cfi_endproc
 627              	.LFE58:
 628              		.size	main, .-main
 629              		.section	.text.init_can_module,"ax",%progbits
 630              		.align	2
 631              		.global	init_can_module
 632              		.thumb
 633              		.thumb_func
 634              		.type	init_can_module, %function
 635              	init_can_module:
 636              	.LFB59:
 236:.\main.c      **** }
 237:.\main.c      **** 
 238:.\main.c      **** 
 239:.\main.c      **** /******************************************************************************
 240:.\main.c      **** * HELPER FUNCTIONS
 241:.\main.c      **** *******************************************************************************/
 242:.\main.c      **** 
 243:.\main.c      **** void init_can_module()
 244:.\main.c      **** {
 637              		.loc 1 244 0
 638              		.cfi_startproc
 639              		@ args = 0, pretend = 0, frame = 0
 640              		@ frame_needed = 1, uses_anonymous_args = 0
 641 0000 80B5     		push	{r7, lr}
 642              		.cfi_def_cfa_offset 8
 643              		.cfi_offset 7, -8
 644              		.cfi_offset 14, -4
 645 0002 00AF     		add	r7, sp, #0
 646              		.cfi_def_cfa_register 7
 245:.\main.c      ****     // Initializing required components for CAN communication
 246:.\main.c      ****     CAN_1_Start();
 647              		.loc 1 246 0
 648 0004 FFF7FEFF 		bl	CAN_1_Start
 247:.\main.c      ****     CAN_1_GlobalIntEnable();
 649              		.loc 1 247 0
 650 0008 FFF7FEFF 		bl	CAN_1_GlobalIntEnable
 248:.\main.c      ****     CAN_Standby_Write(0);
 651              		.loc 1 248 0
 652 000c 0020     		movs	r0, #0
 653 000e FFF7FEFF 		bl	CAN_Standby_Write
 249:.\main.c      ****     
 250:.\main.c      ****     // CAN message are read every time the counter turns to zero
 251:.\main.c      ****     CanReaderISR_StartEx(CounterCanInterruptHandler);
 654              		.loc 1 251 0
 655 0012 0348     		ldr	r0, .L34
 656 0014 FFF7FEFF 		bl	CanReaderISR_StartEx
ARM GAS  C:\Users\plod1602\AppData\Local\Temp\ccg8l0Rh.s 			page 17


 252:.\main.c      ****     Counter_CanReader_Start();
 657              		.loc 1 252 0
 658 0018 FFF7FEFF 		bl	Counter_CanReader_Start
 253:.\main.c      **** }
 659              		.loc 1 253 0
 660 001c 80BD     		pop	{r7, pc}
 661              	.L35:
 662 001e 00BF     		.align	2
 663              	.L34:
 664 0020 00000000 		.word	CounterCanInterruptHandler
 665              		.cfi_endproc
 666              	.LFE59:
 667              		.size	init_can_module, .-init_can_module
 668              		.text
 669              	.Letext0:
 670              		.file 2 "c:\\program files (x86)\\cypress\\psoc creator\\3.3\\psoc creator\\import\\gnu\\arm\\4.9.
 671              		.file 3 "c:\\program files (x86)\\cypress\\psoc creator\\3.3\\psoc creator\\import\\gnu\\arm\\4.9.
 672              		.file 4 "Generated_Source\\PSoC5/cytypes.h"
 673              		.file 5 "Generated_Source\\PSoC5/CAN_1.h"
 674              		.file 6 ".\\CANCommunication.h"
 675              		.file 7 "Generated_Source\\PSoC5/core_cm3.h"
 676              		.file 8 ".\\gripperEeprom.h"