ARM GAS  C:\Users\GUILLA~1\AppData\Local\Temp\ccBt0odi.s 			page 1


   1              		.syntax unified
   2              		.cpu cortex-m3
   3              		.fpu softvfp
   4              		.eabi_attribute 20, 1
   5              		.eabi_attribute 21, 1
   6              		.eabi_attribute 23, 3
   7              		.eabi_attribute 24, 1
   8              		.eabi_attribute 25, 1
   9              		.eabi_attribute 26, 1
  10              		.eabi_attribute 30, 6
  11              		.eabi_attribute 34, 1
  12              		.eabi_attribute 18, 4
  13              		.thumb
  14              		.file	"main.c"
  15              		.text
  16              	.Ltext0:
  17              		.cfi_sections	.debug_frame
  18              		.global	messageToBeTreatedCount
  19              		.bss
  20              		.align	2
  21              		.type	messageToBeTreatedCount, %object
  22              		.size	messageToBeTreatedCount, 4
  23              	messageToBeTreatedCount:
  24 0000 00000000 		.space	4
  25              		.global	msgToBeTreatedIndex
  26              		.align	2
  27              		.type	msgToBeTreatedIndex, %object
  28              		.size	msgToBeTreatedIndex, 4
  29              	msgToBeTreatedIndex:
  30 0004 00000000 		.space	4
  31              		.global	msgToBeStoredIndex
  32              		.align	2
  33              		.type	msgToBeStoredIndex, %object
  34              		.size	msgToBeStoredIndex, 4
  35              	msgToBeStoredIndex:
  36 0008 00000000 		.space	4
  37              		.comm	receivedMsgs,800,4
  38              		.global	readCanMessage
  39              		.type	readCanMessage, %object
  40              		.size	readCanMessage, 1
  41              	readCanMessage:
  42 000c 00       		.space	1
  43              		.global	treatingAddress
  44              		.type	treatingAddress, %object
  45              		.size	treatingAddress, 1
  46              	treatingAddress:
  47 000d 00       		.space	1
  48 000e 0000     		.section	.text.treatCanMessage,"ax",%progbits
  49              		.align	2
  50              		.global	treatCanMessage
  51              		.thumb
  52              		.thumb_func
  53              		.type	treatCanMessage, %function
  54              	treatCanMessage:
  55              	.LFB56:
  56              		.file 1 ".\\main.c"
   1:.\main.c      **** /*******************************************************************************
ARM GAS  C:\Users\GUILLA~1\AppData\Local\Temp\ccBt0odi.s 			page 2


   2:.\main.c      **** * Project Name:      module-gripper-psoc
   3:.\main.c      **** * Version:           1.0
   4:.\main.c      **** *
   5:.\main.c      **** * Device Used:       PSoC 5 CY8C5588AXI-LP035
   6:.\main.c      **** * Software Used:     PSoC Creator v3.3
   7:.\main.c      **** * Compiler Used:     ARM GCC 4.9-2015-q1-update
   8:.\main.c      **** ********************************************************************************
   9:.\main.c      **** * Theory of Operation:
  10:.\main.c      **** *
  11:.\main.c      **** *
  12:.\main.c      **** *******************************************************************************/
  13:.\main.c      **** #include "main.h"
  14:.\main.c      **** 
  15:.\main.c      **** 
  16:.\main.c      **** /* **************************************
  17:.\main.c      ****    MACROS
  18:.\main.c      ****  * *************************************/
  19:.\main.c      **** 
  20:.\main.c      **** #define SETCLOCK_4MHZ ControlReg_Write(ControlReg_Read() | 0x01)
  21:.\main.c      **** #define SETCLOCK_8MHZ ControlReg_Write(ControlReg_Read() & 0xFE)
  22:.\main.c      **** 
  23:.\main.c      **** /* **************************************
  24:.\main.c      ****    VARIABLES
  25:.\main.c      ****  * *************************************/
  26:.\main.c      **** 
  27:.\main.c      **** 
  28:.\main.c      **** // ------- VARIABLES CAN ---------
  29:.\main.c      **** int messageToBeTreatedCount = 0;
  30:.\main.c      **** int msgToBeTreatedIndex = 0;
  31:.\main.c      **** int msgToBeStoredIndex = 0;
  32:.\main.c      **** CAN_MSG receivedMsgs[MAX_MSG_BUFFER_SIZE];
  33:.\main.c      **** // ----------------------------
  34:.\main.c      **** 
  35:.\main.c      **** volatile uint8 readCanMessage = 0;
  36:.\main.c      **** uint8 treatingAddress = 0;
  37:.\main.c      **** 
  38:.\main.c      **** 
  39:.\main.c      **** 
  40:.\main.c      **** uint8 treatCanMessage(uint8* canPacket)
  41:.\main.c      **** {   
  57              		.loc 1 41 0
  58              		.cfi_startproc
  59              		@ args = 0, pretend = 0, frame = 16
  60              		@ frame_needed = 1, uses_anonymous_args = 0
  61 0000 90B5     		push	{r4, r7, lr}
  62              		.cfi_def_cfa_offset 12
  63              		.cfi_offset 4, -12
  64              		.cfi_offset 7, -8
  65              		.cfi_offset 14, -4
  66 0002 89B0     		sub	sp, sp, #36
  67              		.cfi_def_cfa_offset 48
  68 0004 04AF     		add	r7, sp, #16
  69              		.cfi_def_cfa 7, 32
  70 0006 7860     		str	r0, [r7, #4]
  42:.\main.c      ****     uint16 rightMotorPosition = 0;
  71              		.loc 1 42 0
  72 0008 0023     		movs	r3, #0
ARM GAS  C:\Users\GUILLA~1\AppData\Local\Temp\ccBt0odi.s 			page 3


  73 000a FB81     		strh	r3, [r7, #14]	@ movhi
  43:.\main.c      ****     uint16 leftMotorPosition = 0;
  74              		.loc 1 43 0
  75 000c 0023     		movs	r3, #0
  76 000e BB81     		strh	r3, [r7, #12]	@ movhi
  44:.\main.c      ****     
  45:.\main.c      ****     switch(canPacket[0])
  77              		.loc 1 45 0
  78 0010 7B68     		ldr	r3, [r7, #4]
  79 0012 1B78     		ldrb	r3, [r3]	@ zero_extendqisi2
  80 0014 0E2B     		cmp	r3, #14
  81 0016 00F24182 		bhi	.L2
  82 001a 01A2     		adr	r2, .L4
  83 001c 52F823F0 		ldr	pc, [r2, r3, lsl #2]
  84              		.p2align 2
  85              	.L4:
  86 0020 5D000000 		.word	.L3+1
  87 0024 63000000 		.word	.L5+1
  88 0028 83000000 		.word	.L6+1
  89 002c 15020000 		.word	.L7+1
  90 0030 61020000 		.word	.L8+1
  91 0034 AD020000 		.word	.L9+1
  92 0038 81010000 		.word	.L10+1
  93 003c CB010000 		.word	.L11+1
  94 0040 35010000 		.word	.L12+1
  95 0044 E7020000 		.word	.L13+1
  96 0048 31030000 		.word	.L14+1
  97 004c CF030000 		.word	.L15+1
  98 0050 FF030000 		.word	.L16+1
  99 0054 2F040000 		.word	.L17+1
 100 0058 5F040000 		.word	.L18+1
 101              		.p2align 1
 102              	.L3:
  46:.\main.c      ****     {
  47:.\main.c      ****         case CAN_INSTRUCTION_SET_Z_AXIS_HOME:
  48:.\main.c      ****             
  49:.\main.c      ****             Z_Axis_Home();
 103              		.loc 1 49 0
 104 005c FFF7FEFF 		bl	Z_Axis_Home
  50:.\main.c      ****             break;
 105              		.loc 1 50 0
 106 0060 1CE2     		b	.L2
 107              	.L5:
  51:.\main.c      ****         
  52:.\main.c      ****         case CAN_INSTRUCTION_SET_Z_AXIS_POSITION:
  53:.\main.c      ****             
  54:.\main.c      ****             Z_Axis_GoTo((uint16)(canPacket[6]<<8) | canPacket[7]);
 108              		.loc 1 54 0
 109 0062 7B68     		ldr	r3, [r7, #4]
 110 0064 0633     		adds	r3, r3, #6
 111 0066 1B78     		ldrb	r3, [r3]	@ zero_extendqisi2
 112 0068 9BB2     		uxth	r3, r3
 113 006a 1B02     		lsls	r3, r3, #8
 114 006c 9AB2     		uxth	r2, r3
 115 006e 7B68     		ldr	r3, [r7, #4]
 116 0070 0733     		adds	r3, r3, #7
 117 0072 1B78     		ldrb	r3, [r3]	@ zero_extendqisi2
ARM GAS  C:\Users\GUILLA~1\AppData\Local\Temp\ccBt0odi.s 			page 4


 118 0074 9BB2     		uxth	r3, r3
 119 0076 1343     		orrs	r3, r3, r2
 120 0078 9BB2     		uxth	r3, r3
 121 007a 1846     		mov	r0, r3
 122 007c FFF7FEFF 		bl	Z_Axis_GoTo
  55:.\main.c      ****             break;
 123              		.loc 1 55 0
 124 0080 0CE2     		b	.L2
 125              	.L6:
  56:.\main.c      ****             
  57:.\main.c      ****         case CAN_INSTRUCTION_OPEN_GRIPPER:
  58:.\main.c      ****             
  59:.\main.c      ****             // canPacket[1]:
  60:.\main.c      ****             //      pourcentage of the openning
  61:.\main.c      ****             
  62:.\main.c      ****             rightMotorPosition = ((motorAngleLimits[MOTOR_RIGHT_ANGLE_CCW] - motorAngleLimits[MOTOR
 126              		.loc 1 62 0
 127 0082 AF4B     		ldr	r3, .L23
 128 0084 DB88     		ldrh	r3, [r3, #6]
 129 0086 1A46     		mov	r2, r3
 130 0088 AD4B     		ldr	r3, .L23
 131 008a 9B88     		ldrh	r3, [r3, #4]
 132 008c D31A     		subs	r3, r2, r3
 133 008e 7A68     		ldr	r2, [r7, #4]
 134 0090 0132     		adds	r2, r2, #1
 135 0092 1278     		ldrb	r2, [r2]	@ zero_extendqisi2
 136 0094 02FB03F3 		mul	r3, r2, r3
 137 0098 AA4A     		ldr	r2, .L23+4
 138 009a 82FB0312 		smull	r1, r2, r2, r3
 139 009e 5211     		asrs	r2, r2, #5
 140 00a0 DB17     		asrs	r3, r3, #31
 141 00a2 D31A     		subs	r3, r2, r3
 142 00a4 9AB2     		uxth	r2, r3
 143 00a6 A64B     		ldr	r3, .L23
 144 00a8 9B88     		ldrh	r3, [r3, #4]
 145 00aa 1344     		add	r3, r3, r2
 146 00ac FB81     		strh	r3, [r7, #14]	@ movhi
  63:.\main.c      ****             leftMotorPosition  = ((motorAngleLimits[MOTOR_LEFT_ANGLE_CCW] - motorAngleLimits[MOTOR_
 147              		.loc 1 63 0
 148 00ae A44B     		ldr	r3, .L23
 149 00b0 5B88     		ldrh	r3, [r3, #2]
 150 00b2 1A46     		mov	r2, r3
 151 00b4 A24B     		ldr	r3, .L23
 152 00b6 1B88     		ldrh	r3, [r3]
 153 00b8 D31A     		subs	r3, r2, r3
 154 00ba 7A68     		ldr	r2, [r7, #4]
 155 00bc 0132     		adds	r2, r2, #1
 156 00be 1278     		ldrb	r2, [r2]	@ zero_extendqisi2
 157 00c0 C2F16402 		rsb	r2, r2, #100
 158 00c4 02FB03F3 		mul	r3, r2, r3
 159 00c8 9E4A     		ldr	r2, .L23+4
 160 00ca 82FB0312 		smull	r1, r2, r2, r3
 161 00ce 5211     		asrs	r2, r2, #5
 162 00d0 DB17     		asrs	r3, r3, #31
 163 00d2 D31A     		subs	r3, r2, r3
 164 00d4 9AB2     		uxth	r2, r3
 165 00d6 9A4B     		ldr	r3, .L23
ARM GAS  C:\Users\GUILLA~1\AppData\Local\Temp\ccBt0odi.s 			page 5


 166 00d8 1B88     		ldrh	r3, [r3]
 167 00da 1344     		add	r3, r3, r2
 168 00dc BB81     		strh	r3, [r7, #12]	@ movhi
  64:.\main.c      ****             
  65:.\main.c      ****             sendPacketToDynamixel(dynamixel_setPositionRegPacket(motorType[MOTOR_TYPE_RIGHT], right
 169              		.loc 1 65 0
 170 00de 9A4B     		ldr	r3, .L23+8
 171 00e0 DA78     		ldrb	r2, [r3, #3]	@ zero_extendqisi2
 172 00e2 FB89     		ldrh	r3, [r7, #14]
 173 00e4 1046     		mov	r0, r2
 174 00e6 1946     		mov	r1, r3
 175 00e8 FFF7FEFF 		bl	dynamixel_setPositionRegPacket
 176 00ec 0346     		mov	r3, r0
 177 00ee 1846     		mov	r0, r3
 178 00f0 FFF7FEFF 		bl	sendPacketToDynamixel
  66:.\main.c      ****             sendPacketToDynamixel(dynamixel_setPositionRegPacket(motorType[MOTOR_TYPE_LEFT], leftMo
 179              		.loc 1 66 0
 180 00f4 944B     		ldr	r3, .L23+8
 181 00f6 1A79     		ldrb	r2, [r3, #4]	@ zero_extendqisi2
 182 00f8 BB89     		ldrh	r3, [r7, #12]
 183 00fa 1046     		mov	r0, r2
 184 00fc 1946     		mov	r1, r3
 185 00fe FFF7FEFF 		bl	dynamixel_setPositionRegPacket
 186 0102 0346     		mov	r3, r0
 187 0104 1846     		mov	r0, r3
 188 0106 FFF7FEFF 		bl	sendPacketToDynamixel
  67:.\main.c      ****             sendPacketToDynamixel(dynamixel_getActionPacket());
 189              		.loc 1 67 0
 190 010a FFF7FEFF 		bl	dynamixel_getActionPacket
 191 010e 0346     		mov	r3, r0
 192 0110 1846     		mov	r0, r3
 193 0112 FFF7FEFF 		bl	sendPacketToDynamixel
  68:.\main.c      ****             
  69:.\main.c      ****             //Quick fix to unlock PC APP
  70:.\main.c      ****             sendDataToCAN(CAN_INSTRUCTION_OPEN_GRIPPER, CAN_HARDWARE_FILTER_ID, 0x00, 0x00, 0x00, 0
 194              		.loc 1 70 0
 195 0116 0023     		movs	r3, #0
 196 0118 0093     		str	r3, [sp]
 197 011a 0023     		movs	r3, #0
 198 011c 0193     		str	r3, [sp, #4]
 199 011e 0023     		movs	r3, #0
 200 0120 0293     		str	r3, [sp, #8]
 201 0122 0023     		movs	r3, #0
 202 0124 0393     		str	r3, [sp, #12]
 203 0126 0220     		movs	r0, #2
 204 0128 3021     		movs	r1, #48
 205 012a 0022     		movs	r2, #0
 206 012c 0023     		movs	r3, #0
 207 012e FFF7FEFF 		bl	sendDataToCAN
  71:.\main.c      ****             break;
 208              		.loc 1 71 0
 209 0132 B3E1     		b	.L2
 210              	.L12:
  72:.\main.c      ****             
  73:.\main.c      ****         case CAN_INSTRUCTION_MOVE:
  74:.\main.c      ****             
  75:.\main.c      ****             // canPacket[1]:
ARM GAS  C:\Users\GUILLA~1\AppData\Local\Temp\ccBt0odi.s 			page 6


  76:.\main.c      ****             //      ID of the motor
  77:.\main.c      ****             // canPacket[2] & canPacket[3]:
  78:.\main.c      ****             //      Position of the motor (between 0 and 0x3ff)
  79:.\main.c      ****             
  80:.\main.c      ****             sendPacketToDynamixel(dynamixel_setPositionPacket(canPacket[1], (uint16)((canPacket[3]<
 211              		.loc 1 80 0
 212 0134 7B68     		ldr	r3, [r7, #4]
 213 0136 0133     		adds	r3, r3, #1
 214 0138 1978     		ldrb	r1, [r3]	@ zero_extendqisi2
 215 013a 7B68     		ldr	r3, [r7, #4]
 216 013c 0333     		adds	r3, r3, #3
 217 013e 1B78     		ldrb	r3, [r3]	@ zero_extendqisi2
 218 0140 9BB2     		uxth	r3, r3
 219 0142 1B02     		lsls	r3, r3, #8
 220 0144 9AB2     		uxth	r2, r3
 221 0146 7B68     		ldr	r3, [r7, #4]
 222 0148 0233     		adds	r3, r3, #2
 223 014a 1B78     		ldrb	r3, [r3]	@ zero_extendqisi2
 224 014c 9BB2     		uxth	r3, r3
 225 014e 1344     		add	r3, r3, r2
 226 0150 9BB2     		uxth	r3, r3
 227 0152 0846     		mov	r0, r1
 228 0154 1946     		mov	r1, r3
 229 0156 FFF7FEFF 		bl	dynamixel_setPositionPacket
 230 015a 0346     		mov	r3, r0
 231 015c 1846     		mov	r0, r3
 232 015e FFF7FEFF 		bl	sendPacketToDynamixel
  81:.\main.c      ****             
  82:.\main.c      ****             //Quick fix to unlock PC APP
  83:.\main.c      ****             sendDataToCAN(CAN_INSTRUCTION_MOVE, CAN_HARDWARE_FILTER_ID, 0x00, 0x00, 0x00, 0x00, 0x0
 233              		.loc 1 83 0
 234 0162 0023     		movs	r3, #0
 235 0164 0093     		str	r3, [sp]
 236 0166 0023     		movs	r3, #0
 237 0168 0193     		str	r3, [sp, #4]
 238 016a 0023     		movs	r3, #0
 239 016c 0293     		str	r3, [sp, #8]
 240 016e 0023     		movs	r3, #0
 241 0170 0393     		str	r3, [sp, #12]
 242 0172 0820     		movs	r0, #8
 243 0174 3021     		movs	r1, #48
 244 0176 0022     		movs	r2, #0
 245 0178 0023     		movs	r3, #0
 246 017a FFF7FEFF 		bl	sendDataToCAN
  84:.\main.c      ****             break;
 247              		.loc 1 84 0
 248 017e 8DE1     		b	.L2
 249              	.L10:
  85:.\main.c      ****         
  86:.\main.c      ****         case CAN_INSTRUCTION_TILT:
  87:.\main.c      ****             
  88:.\main.c      ****             // canPacket[1] & canPacket[2]:
  89:.\main.c      ****             //      position of the motor
  90:.\main.c      **** 
  91:.\main.c      ****             sendPacketToDynamixel(dynamixel_setPositionPacket(motorType[MOTOR_TYPE_TILT], (uint16)(
 250              		.loc 1 91 0
 251 0180 714B     		ldr	r3, .L23+8
ARM GAS  C:\Users\GUILLA~1\AppData\Local\Temp\ccBt0odi.s 			page 7


 252 0182 9978     		ldrb	r1, [r3, #2]	@ zero_extendqisi2
 253 0184 7B68     		ldr	r3, [r7, #4]
 254 0186 0233     		adds	r3, r3, #2
 255 0188 1B78     		ldrb	r3, [r3]	@ zero_extendqisi2
 256 018a 9BB2     		uxth	r3, r3
 257 018c 1B02     		lsls	r3, r3, #8
 258 018e 9AB2     		uxth	r2, r3
 259 0190 7B68     		ldr	r3, [r7, #4]
 260 0192 0133     		adds	r3, r3, #1
 261 0194 1B78     		ldrb	r3, [r3]	@ zero_extendqisi2
 262 0196 9BB2     		uxth	r3, r3
 263 0198 1344     		add	r3, r3, r2
 264 019a 9BB2     		uxth	r3, r3
 265 019c 0846     		mov	r0, r1
 266 019e 1946     		mov	r1, r3
 267 01a0 FFF7FEFF 		bl	dynamixel_setPositionPacket
 268 01a4 0346     		mov	r3, r0
 269 01a6 1846     		mov	r0, r3
 270 01a8 FFF7FEFF 		bl	sendPacketToDynamixel
  92:.\main.c      ****             
  93:.\main.c      ****             //Quick fix to unlock PC APP
  94:.\main.c      ****             sendDataToCAN(CAN_INSTRUCTION_TILT, CAN_HARDWARE_FILTER_ID, 0x00, 0x00, 0x00, 0x00, 0x0
 271              		.loc 1 94 0
 272 01ac 0023     		movs	r3, #0
 273 01ae 0093     		str	r3, [sp]
 274 01b0 0023     		movs	r3, #0
 275 01b2 0193     		str	r3, [sp, #4]
 276 01b4 0023     		movs	r3, #0
 277 01b6 0293     		str	r3, [sp, #8]
 278 01b8 0023     		movs	r3, #0
 279 01ba 0393     		str	r3, [sp, #12]
 280 01bc 0620     		movs	r0, #6
 281 01be 3021     		movs	r1, #48
 282 01c0 0022     		movs	r2, #0
 283 01c2 0023     		movs	r3, #0
 284 01c4 FFF7FEFF 		bl	sendDataToCAN
  95:.\main.c      ****             break;
 285              		.loc 1 95 0
 286 01c8 68E1     		b	.L2
 287              	.L11:
  96:.\main.c      ****             
  97:.\main.c      ****         case CAN_INSTRUCTION_ROTATE:
  98:.\main.c      ****             
  99:.\main.c      ****             // canPacket[1] & canPacket[2]:
 100:.\main.c      ****             //      position of the motor
 101:.\main.c      ****             
 102:.\main.c      ****             sendPacketToDynamixel(dynamixel_setPositionPacket(motorType[MOTOR_TYPE_ROTATE], (uint16
 288              		.loc 1 102 0
 289 01ca 5F4B     		ldr	r3, .L23+8
 290 01cc 5978     		ldrb	r1, [r3, #1]	@ zero_extendqisi2
 291 01ce 7B68     		ldr	r3, [r7, #4]
 292 01d0 0233     		adds	r3, r3, #2
 293 01d2 1B78     		ldrb	r3, [r3]	@ zero_extendqisi2
 294 01d4 9BB2     		uxth	r3, r3
 295 01d6 1B02     		lsls	r3, r3, #8
 296 01d8 9AB2     		uxth	r2, r3
 297 01da 7B68     		ldr	r3, [r7, #4]
ARM GAS  C:\Users\GUILLA~1\AppData\Local\Temp\ccBt0odi.s 			page 8


 298 01dc 0133     		adds	r3, r3, #1
 299 01de 1B78     		ldrb	r3, [r3]	@ zero_extendqisi2
 300 01e0 9BB2     		uxth	r3, r3
 301 01e2 1344     		add	r3, r3, r2
 302 01e4 9BB2     		uxth	r3, r3
 303 01e6 0846     		mov	r0, r1
 304 01e8 1946     		mov	r1, r3
 305 01ea FFF7FEFF 		bl	dynamixel_setPositionPacket
 306 01ee 0346     		mov	r3, r0
 307 01f0 1846     		mov	r0, r3
 308 01f2 FFF7FEFF 		bl	sendPacketToDynamixel
 103:.\main.c      ****             
 104:.\main.c      ****             //Quick fix to unlock PC APP
 105:.\main.c      ****             sendDataToCAN(CAN_INSTRUCTION_ROTATE, CAN_HARDWARE_FILTER_ID, 0x00, 0x00, 0x00, 0x00, 0
 309              		.loc 1 105 0
 310 01f6 0023     		movs	r3, #0
 311 01f8 0093     		str	r3, [sp]
 312 01fa 0023     		movs	r3, #0
 313 01fc 0193     		str	r3, [sp, #4]
 314 01fe 0023     		movs	r3, #0
 315 0200 0293     		str	r3, [sp, #8]
 316 0202 0023     		movs	r3, #0
 317 0204 0393     		str	r3, [sp, #12]
 318 0206 0720     		movs	r0, #7
 319 0208 3021     		movs	r1, #48
 320 020a 0022     		movs	r2, #0
 321 020c 0023     		movs	r3, #0
 322 020e FFF7FEFF 		bl	sendDataToCAN
 106:.\main.c      ****             break;
 323              		.loc 1 106 0
 324 0212 43E1     		b	.L2
 325              	.L7:
 107:.\main.c      ****         
 108:.\main.c      ****         case CAN_INSTRUCTION_SET_MOVING_SPEED:
 109:.\main.c      ****             
 110:.\main.c      ****             // canPacket[1]:
 111:.\main.c      ****             //      ID of the motor
 112:.\main.c      ****             // canPacket[2] & canPacket[3]:
 113:.\main.c      ****             //      Moving speed of the motor (between 0 and 0x3ff)
 114:.\main.c      ****             
 115:.\main.c      ****             sendPacketToDynamixel(dynamixel_setMovingSpeedPacket(canPacket[1], (uint16)((canPacket[
 326              		.loc 1 115 0
 327 0214 7B68     		ldr	r3, [r7, #4]
 328 0216 0133     		adds	r3, r3, #1
 329 0218 1978     		ldrb	r1, [r3]	@ zero_extendqisi2
 330 021a 7B68     		ldr	r3, [r7, #4]
 331 021c 0333     		adds	r3, r3, #3
 332 021e 1B78     		ldrb	r3, [r3]	@ zero_extendqisi2
 333 0220 9BB2     		uxth	r3, r3
 334 0222 1B02     		lsls	r3, r3, #8
 335 0224 9AB2     		uxth	r2, r3
 336 0226 7B68     		ldr	r3, [r7, #4]
 337 0228 0233     		adds	r3, r3, #2
 338 022a 1B78     		ldrb	r3, [r3]	@ zero_extendqisi2
 339 022c 9BB2     		uxth	r3, r3
 340 022e 1344     		add	r3, r3, r2
 341 0230 9BB2     		uxth	r3, r3
ARM GAS  C:\Users\GUILLA~1\AppData\Local\Temp\ccBt0odi.s 			page 9


 342 0232 0846     		mov	r0, r1
 343 0234 1946     		mov	r1, r3
 344 0236 FFF7FEFF 		bl	dynamixel_setMovingSpeedPacket
 345 023a 0346     		mov	r3, r0
 346 023c 1846     		mov	r0, r3
 347 023e FFF7FEFF 		bl	sendPacketToDynamixel
 116:.\main.c      ****             
 117:.\main.c      ****             //Quick fix to unlock PC APP
 118:.\main.c      ****             sendDataToCAN(CAN_INSTRUCTION_SET_MOVING_SPEED, CAN_HARDWARE_FILTER_ID, 0x00, 0x00, 0x0
 348              		.loc 1 118 0
 349 0242 0023     		movs	r3, #0
 350 0244 0093     		str	r3, [sp]
 351 0246 0023     		movs	r3, #0
 352 0248 0193     		str	r3, [sp, #4]
 353 024a 0023     		movs	r3, #0
 354 024c 0293     		str	r3, [sp, #8]
 355 024e 0023     		movs	r3, #0
 356 0250 0393     		str	r3, [sp, #12]
 357 0252 0320     		movs	r0, #3
 358 0254 3021     		movs	r1, #48
 359 0256 0022     		movs	r2, #0
 360 0258 0023     		movs	r3, #0
 361 025a FFF7FEFF 		bl	sendDataToCAN
 119:.\main.c      ****             break;
 362              		.loc 1 119 0
 363 025e 1DE1     		b	.L2
 364              	.L8:
 120:.\main.c      ****             
 121:.\main.c      ****         case CAN_INSTRUCTION_SET_TORQUE:
 122:.\main.c      ****             
 123:.\main.c      ****             // canPacket[1]:
 124:.\main.c      ****             //      ID of the motor
 125:.\main.c      ****             // canPacket[2] & canPacket[3]:
 126:.\main.c      ****             //      Torque of the motor (between 0 and 0x3ff)
 127:.\main.c      ****             
 128:.\main.c      ****             sendPacketToDynamixel(dynamixel_setTorquePacket(canPacket[1], (uint16)((canPacket[3]<<8
 365              		.loc 1 128 0
 366 0260 7B68     		ldr	r3, [r7, #4]
 367 0262 0133     		adds	r3, r3, #1
 368 0264 1978     		ldrb	r1, [r3]	@ zero_extendqisi2
 369 0266 7B68     		ldr	r3, [r7, #4]
 370 0268 0333     		adds	r3, r3, #3
 371 026a 1B78     		ldrb	r3, [r3]	@ zero_extendqisi2
 372 026c 9BB2     		uxth	r3, r3
 373 026e 1B02     		lsls	r3, r3, #8
 374 0270 9AB2     		uxth	r2, r3
 375 0272 7B68     		ldr	r3, [r7, #4]
 376 0274 0233     		adds	r3, r3, #2
 377 0276 1B78     		ldrb	r3, [r3]	@ zero_extendqisi2
 378 0278 9BB2     		uxth	r3, r3
 379 027a 1344     		add	r3, r3, r2
 380 027c 9BB2     		uxth	r3, r3
 381 027e 0846     		mov	r0, r1
 382 0280 1946     		mov	r1, r3
 383 0282 FFF7FEFF 		bl	dynamixel_setTorquePacket
 384 0286 0346     		mov	r3, r0
 385 0288 1846     		mov	r0, r3
ARM GAS  C:\Users\GUILLA~1\AppData\Local\Temp\ccBt0odi.s 			page 10


 386 028a FFF7FEFF 		bl	sendPacketToDynamixel
 129:.\main.c      ****             
 130:.\main.c      ****             //Quick fix to unlock PC APP
 131:.\main.c      ****             sendDataToCAN(CAN_INSTRUCTION_SET_TORQUE, CAN_HARDWARE_FILTER_ID, 0x00, 0x00, 0x00, 0x0
 387              		.loc 1 131 0
 388 028e 0023     		movs	r3, #0
 389 0290 0093     		str	r3, [sp]
 390 0292 0023     		movs	r3, #0
 391 0294 0193     		str	r3, [sp, #4]
 392 0296 0023     		movs	r3, #0
 393 0298 0293     		str	r3, [sp, #8]
 394 029a 0023     		movs	r3, #0
 395 029c 0393     		str	r3, [sp, #12]
 396 029e 0420     		movs	r0, #4
 397 02a0 3021     		movs	r1, #48
 398 02a2 0022     		movs	r2, #0
 399 02a4 0023     		movs	r3, #0
 400 02a6 FFF7FEFF 		bl	sendDataToCAN
 132:.\main.c      ****             break;
 401              		.loc 1 132 0
 402 02aa F7E0     		b	.L2
 403              	.L9:
 133:.\main.c      ****             
 134:.\main.c      ****         case CAN_INSTRUCTION_SET_TORQUE_ENABLE:
 135:.\main.c      ****             
 136:.\main.c      ****             // canPacket[1]: 
 137:.\main.c      ****             //      ID of the motor
 138:.\main.c      ****             //
 139:.\main.c      ****             // canPacket[2]: 
 140:.\main.c      ****             //      0 means no torque
 141:.\main.c      ****             //      1 means apply torque
 142:.\main.c      ****             
 143:.\main.c      ****             sendPacketToDynamixel(dynamixel_setTorqueEnablePacket(canPacket[1], canPacket[2]));
 404              		.loc 1 143 0
 405 02ac 7B68     		ldr	r3, [r7, #4]
 406 02ae 0133     		adds	r3, r3, #1
 407 02b0 1A78     		ldrb	r2, [r3]	@ zero_extendqisi2
 408 02b2 7B68     		ldr	r3, [r7, #4]
 409 02b4 0233     		adds	r3, r3, #2
 410 02b6 1B78     		ldrb	r3, [r3]	@ zero_extendqisi2
 411 02b8 1046     		mov	r0, r2
 412 02ba 1946     		mov	r1, r3
 413 02bc FFF7FEFF 		bl	dynamixel_setTorqueEnablePacket
 414 02c0 0346     		mov	r3, r0
 415 02c2 1846     		mov	r0, r3
 416 02c4 FFF7FEFF 		bl	sendPacketToDynamixel
 144:.\main.c      ****             
 145:.\main.c      ****             //Quick fix to unlock PC APP
 146:.\main.c      ****             sendDataToCAN(CAN_INSTRUCTION_SET_TORQUE_ENABLE, CAN_HARDWARE_FILTER_ID, 0x00, 0x00, 0x
 417              		.loc 1 146 0
 418 02c8 0023     		movs	r3, #0
 419 02ca 0093     		str	r3, [sp]
 420 02cc 0023     		movs	r3, #0
 421 02ce 0193     		str	r3, [sp, #4]
 422 02d0 0023     		movs	r3, #0
 423 02d2 0293     		str	r3, [sp, #8]
 424 02d4 0023     		movs	r3, #0
ARM GAS  C:\Users\GUILLA~1\AppData\Local\Temp\ccBt0odi.s 			page 11


 425 02d6 0393     		str	r3, [sp, #12]
 426 02d8 0520     		movs	r0, #5
 427 02da 3021     		movs	r1, #48
 428 02dc 0022     		movs	r2, #0
 429 02de 0023     		movs	r3, #0
 430 02e0 FFF7FEFF 		bl	sendDataToCAN
 147:.\main.c      ****             break;
 431              		.loc 1 147 0
 432 02e4 DAE0     		b	.L2
 433              	.L13:
 148:.\main.c      ****             
 149:.\main.c      ****         case CAN_INSTRUCTION_GET_DATA:
 150:.\main.c      **** 			
 151:.\main.c      **** 			// canPacket[1]:
 152:.\main.c      **** 			//		ID of the motor
 153:.\main.c      **** 		    // canPacket[2]: 
 154:.\main.c      **** 			//      address of the first data in the dynamixel table
 155:.\main.c      **** 			// canPacket[3]:
 156:.\main.c      **** 			//		number of byte to retreive (max of 4)
 157:.\main.c      **** 			
 158:.\main.c      **** 			treatingAddress = canPacket[2];
 434              		.loc 1 158 0
 435 02e6 7B68     		ldr	r3, [r7, #4]
 436 02e8 9A78     		ldrb	r2, [r3, #2]	@ zero_extendqisi2
 437 02ea 184B     		ldr	r3, .L23+12
 438 02ec 1A70     		strb	r2, [r3]
 159:.\main.c      **** 			sendPacketToDynamixel(dynamixel_getReadPacket(canPacket[1], canPacket[2], canPacket[3]));
 439              		.loc 1 159 0
 440 02ee 7B68     		ldr	r3, [r7, #4]
 441 02f0 0133     		adds	r3, r3, #1
 442 02f2 1978     		ldrb	r1, [r3]	@ zero_extendqisi2
 443 02f4 7B68     		ldr	r3, [r7, #4]
 444 02f6 0233     		adds	r3, r3, #2
 445 02f8 1A78     		ldrb	r2, [r3]	@ zero_extendqisi2
 446 02fa 7B68     		ldr	r3, [r7, #4]
 447 02fc 0333     		adds	r3, r3, #3
 448 02fe 1B78     		ldrb	r3, [r3]	@ zero_extendqisi2
 449 0300 0846     		mov	r0, r1
 450 0302 1146     		mov	r1, r2
 451 0304 1A46     		mov	r2, r3
 452 0306 FFF7FEFF 		bl	dynamixel_getReadPacket
 453 030a 0346     		mov	r3, r0
 454 030c 1846     		mov	r0, r3
 455 030e FFF7FEFF 		bl	sendPacketToDynamixel
 160:.\main.c      ****             
 161:.\main.c      ****             //Quick fix to unlock PC APP
 162:.\main.c      ****             sendDataToCAN(CAN_INSTRUCTION_GET_DATA, CAN_HARDWARE_FILTER_ID, 0x00, 0x00, 0x00, 0x00,
 456              		.loc 1 162 0
 457 0312 0023     		movs	r3, #0
 458 0314 0093     		str	r3, [sp]
 459 0316 0023     		movs	r3, #0
 460 0318 0193     		str	r3, [sp, #4]
 461 031a 0023     		movs	r3, #0
 462 031c 0293     		str	r3, [sp, #8]
 463 031e 0023     		movs	r3, #0
 464 0320 0393     		str	r3, [sp, #12]
 465 0322 0920     		movs	r0, #9
ARM GAS  C:\Users\GUILLA~1\AppData\Local\Temp\ccBt0odi.s 			page 12


 466 0324 3021     		movs	r1, #48
 467 0326 0022     		movs	r2, #0
 468 0328 0023     		movs	r3, #0
 469 032a FFF7FEFF 		bl	sendDataToCAN
 163:.\main.c      **** 			break;
 470              		.loc 1 163 0
 471 032e B5E0     		b	.L2
 472              	.L14:
 164:.\main.c      ****         
 165:.\main.c      ****         case CAN_INSTRUCTION_SET_DATA:
 166:.\main.c      ****             
 167:.\main.c      **** 		    // canPacket[1]: 
 168:.\main.c      **** 			//      ID of the motor
 169:.\main.c      **** 			// canPacket[2]:
 170:.\main.c      **** 			//		address of the first data in the dynamixel table
 171:.\main.c      **** 			// canPacket[3]:
 172:.\main.c      **** 			//		number of byte to retreive (max of 2)
 173:.\main.c      ****             // canPacket[4] & canPacket[5]:
 174:.\main.c      ****             //      data to push to the motor
 175:.\main.c      ****             
 176:.\main.c      ****             switch(canPacket[3]) 
 473              		.loc 1 176 0
 474 0330 7B68     		ldr	r3, [r7, #4]
 475 0332 0333     		adds	r3, r3, #3
 476 0334 1B78     		ldrb	r3, [r3]	@ zero_extendqisi2
 477 0336 012B     		cmp	r3, #1
 478 0338 0AD0     		beq	.L20
 479 033a 022B     		cmp	r3, #2
 480 033c 1BD0     		beq	.L21
 481 033e 37E0     		b	.L19
 482              	.L24:
 483              		.align	2
 484              	.L23:
 485 0340 00000000 		.word	motorAngleLimits
 486 0344 1F85EB51 		.word	1374389535
 487 0348 00000000 		.word	motorType
 488 034c 00000000 		.word	treatingAddress
 489              	.L20:
 177:.\main.c      ****             {
 178:.\main.c      ****                 case 1:
 179:.\main.c      ****                     sendPacketToDynamixel(dynamixel_setByte(canPacket[1], canPacket[2], canPacket[4
 490              		.loc 1 179 0
 491 0350 7B68     		ldr	r3, [r7, #4]
 492 0352 0133     		adds	r3, r3, #1
 493 0354 1978     		ldrb	r1, [r3]	@ zero_extendqisi2
 494 0356 7B68     		ldr	r3, [r7, #4]
 495 0358 0233     		adds	r3, r3, #2
 496 035a 1A78     		ldrb	r2, [r3]	@ zero_extendqisi2
 497 035c 7B68     		ldr	r3, [r7, #4]
 498 035e 0433     		adds	r3, r3, #4
 499 0360 1B78     		ldrb	r3, [r3]	@ zero_extendqisi2
 500 0362 0846     		mov	r0, r1
 501 0364 1146     		mov	r1, r2
 502 0366 1A46     		mov	r2, r3
 503 0368 FFF7FEFF 		bl	dynamixel_setByte
 504 036c 0346     		mov	r3, r0
 505 036e 1846     		mov	r0, r3
ARM GAS  C:\Users\GUILLA~1\AppData\Local\Temp\ccBt0odi.s 			page 13


 506 0370 FFF7FEFF 		bl	sendPacketToDynamixel
 180:.\main.c      ****                     break;
 507              		.loc 1 180 0
 508 0374 1CE0     		b	.L19
 509              	.L21:
 181:.\main.c      ****                 case 2:
 182:.\main.c      ****                     updateAngleLimitData(canPacket);
 510              		.loc 1 182 0
 511 0376 7868     		ldr	r0, [r7, #4]
 512 0378 FFF7FEFF 		bl	updateAngleLimitData
 183:.\main.c      ****                     sendPacketToDynamixel(dynamixel_set2Bytes(canPacket[1], canPacket[2], (canPacke
 513              		.loc 1 183 0
 514 037c 7B68     		ldr	r3, [r7, #4]
 515 037e 0133     		adds	r3, r3, #1
 516 0380 1878     		ldrb	r0, [r3]	@ zero_extendqisi2
 517 0382 7B68     		ldr	r3, [r7, #4]
 518 0384 0233     		adds	r3, r3, #2
 519 0386 1978     		ldrb	r1, [r3]	@ zero_extendqisi2
 520 0388 7B68     		ldr	r3, [r7, #4]
 521 038a 0533     		adds	r3, r3, #5
 522 038c 1B78     		ldrb	r3, [r3]	@ zero_extendqisi2
 523 038e 9BB2     		uxth	r3, r3
 524 0390 1B02     		lsls	r3, r3, #8
 525 0392 9AB2     		uxth	r2, r3
 526 0394 7B68     		ldr	r3, [r7, #4]
 527 0396 0433     		adds	r3, r3, #4
 528 0398 1B78     		ldrb	r3, [r3]	@ zero_extendqisi2
 529 039a 9BB2     		uxth	r3, r3
 530 039c 1344     		add	r3, r3, r2
 531 039e 9BB2     		uxth	r3, r3
 532 03a0 1A46     		mov	r2, r3
 533 03a2 FFF7FEFF 		bl	dynamixel_set2Bytes
 534 03a6 0346     		mov	r3, r0
 535 03a8 1846     		mov	r0, r3
 536 03aa FFF7FEFF 		bl	sendPacketToDynamixel
 184:.\main.c      ****                     break;
 537              		.loc 1 184 0
 538 03ae 00BF     		nop
 539              	.L19:
 185:.\main.c      ****             }
 186:.\main.c      ****             
 187:.\main.c      ****             //Quick fix to unlock PC APP
 188:.\main.c      ****             sendDataToCAN(CAN_INSTRUCTION_SET_DATA, CAN_HARDWARE_FILTER_ID, 0x00, 0x00, 0x00, 0x00,
 540              		.loc 1 188 0
 541 03b0 0023     		movs	r3, #0
 542 03b2 0093     		str	r3, [sp]
 543 03b4 0023     		movs	r3, #0
 544 03b6 0193     		str	r3, [sp, #4]
 545 03b8 0023     		movs	r3, #0
 546 03ba 0293     		str	r3, [sp, #8]
 547 03bc 0023     		movs	r3, #0
 548 03be 0393     		str	r3, [sp, #12]
 549 03c0 0A20     		movs	r0, #10
 550 03c2 3021     		movs	r1, #48
 551 03c4 0022     		movs	r2, #0
 552 03c6 0023     		movs	r3, #0
 553 03c8 FFF7FEFF 		bl	sendDataToCAN
ARM GAS  C:\Users\GUILLA~1\AppData\Local\Temp\ccBt0odi.s 			page 14


 189:.\main.c      ****             break;
 554              		.loc 1 189 0
 555 03cc 66E0     		b	.L2
 556              	.L15:
 190:.\main.c      ****             
 191:.\main.c      ****         case CAN_INSTRUCTION_CLOCK_4M:
 192:.\main.c      ****             
 193:.\main.c      ****             SETCLOCK_4MHZ;
 557              		.loc 1 193 0
 558 03ce FFF7FEFF 		bl	ControlReg_Read
 559 03d2 0346     		mov	r3, r0
 560 03d4 43F00103 		orr	r3, r3, #1
 561 03d8 DBB2     		uxtb	r3, r3
 562 03da 1846     		mov	r0, r3
 563 03dc FFF7FEFF 		bl	ControlReg_Write
 194:.\main.c      ****             
 195:.\main.c      ****             //Quick fix to unlock PC APP
 196:.\main.c      ****             sendDataToCAN(CAN_INSTRUCTION_CLOCK_4M, CAN_HARDWARE_FILTER_ID, 0x00, 0x00, 0x00, 0x00,
 564              		.loc 1 196 0
 565 03e0 0023     		movs	r3, #0
 566 03e2 0093     		str	r3, [sp]
 567 03e4 0023     		movs	r3, #0
 568 03e6 0193     		str	r3, [sp, #4]
 569 03e8 0023     		movs	r3, #0
 570 03ea 0293     		str	r3, [sp, #8]
 571 03ec 0023     		movs	r3, #0
 572 03ee 0393     		str	r3, [sp, #12]
 573 03f0 0B20     		movs	r0, #11
 574 03f2 3021     		movs	r1, #48
 575 03f4 0022     		movs	r2, #0
 576 03f6 0023     		movs	r3, #0
 577 03f8 FFF7FEFF 		bl	sendDataToCAN
 197:.\main.c      ****             break;
 578              		.loc 1 197 0
 579 03fc 4EE0     		b	.L2
 580              	.L16:
 198:.\main.c      ****             
 199:.\main.c      ****         case CAN_INSTRUCTION_CLOCK_8M:
 200:.\main.c      ****             
 201:.\main.c      ****             SETCLOCK_8MHZ;
 581              		.loc 1 201 0
 582 03fe FFF7FEFF 		bl	ControlReg_Read
 583 0402 0346     		mov	r3, r0
 584 0404 23F00103 		bic	r3, r3, #1
 585 0408 DBB2     		uxtb	r3, r3
 586 040a 1846     		mov	r0, r3
 587 040c FFF7FEFF 		bl	ControlReg_Write
 202:.\main.c      ****             
 203:.\main.c      ****             //Quick fix to unlock PC APP
 204:.\main.c      ****             sendDataToCAN(CAN_INSTRUCTION_CLOCK_8M, CAN_HARDWARE_FILTER_ID, 0x00, 0x00, 0x00, 0x00,
 588              		.loc 1 204 0
 589 0410 0023     		movs	r3, #0
 590 0412 0093     		str	r3, [sp]
 591 0414 0023     		movs	r3, #0
 592 0416 0193     		str	r3, [sp, #4]
 593 0418 0023     		movs	r3, #0
 594 041a 0293     		str	r3, [sp, #8]
ARM GAS  C:\Users\GUILLA~1\AppData\Local\Temp\ccBt0odi.s 			page 15


 595 041c 0023     		movs	r3, #0
 596 041e 0393     		str	r3, [sp, #12]
 597 0420 0C20     		movs	r0, #12
 598 0422 3021     		movs	r1, #48
 599 0424 0022     		movs	r2, #0
 600 0426 0023     		movs	r3, #0
 601 0428 FFF7FEFF 		bl	sendDataToCAN
 205:.\main.c      ****             break;
 602              		.loc 1 205 0
 603 042c 36E0     		b	.L2
 604              	.L17:
 206:.\main.c      ****             
 207:.\main.c      ****         case CAN_INSTRUCTION_GET_MOTOR_TYPE:
 208:.\main.c      ****             
 209:.\main.c      **** 		    // canPacket[1]: 
 210:.\main.c      **** 			//      ID of the motor
 211:.\main.c      **** 			
 212:.\main.c      ****             sendDataToCAN(0,CAN_HARDWARE_FILTER_ID, CAN_INSTRUCTION_GET_MOTOR_TYPE, canPacket[1], g
 605              		.loc 1 212 0
 606 042e 7B68     		ldr	r3, [r7, #4]
 607 0430 0133     		adds	r3, r3, #1
 608 0432 1C78     		ldrb	r4, [r3]	@ zero_extendqisi2
 609 0434 7B68     		ldr	r3, [r7, #4]
 610 0436 0133     		adds	r3, r3, #1
 611 0438 1B78     		ldrb	r3, [r3]	@ zero_extendqisi2
 612 043a 1846     		mov	r0, r3
 613 043c FFF7FEFF 		bl	getMotorType
 614 0440 0346     		mov	r3, r0
 615 0442 0093     		str	r3, [sp]
 616 0444 0023     		movs	r3, #0
 617 0446 0193     		str	r3, [sp, #4]
 618 0448 0023     		movs	r3, #0
 619 044a 0293     		str	r3, [sp, #8]
 620 044c 0023     		movs	r3, #0
 621 044e 0393     		str	r3, [sp, #12]
 622 0450 0020     		movs	r0, #0
 623 0452 3021     		movs	r1, #48
 624 0454 0D22     		movs	r2, #13
 625 0456 2346     		mov	r3, r4
 626 0458 FFF7FEFF 		bl	sendDataToCAN
 213:.\main.c      ****             break;
 627              		.loc 1 213 0
 628 045c 1EE0     		b	.L2
 629              	.L18:
 214:.\main.c      ****             
 215:.\main.c      ****         case CAN_INSTRUCTION_SET_MOTOR_TYPE:
 216:.\main.c      ****             
 217:.\main.c      ****             // canPacket[1]: 
 218:.\main.c      **** 			//      ID of the motor
 219:.\main.c      ****             // canPacket[2]: 
 220:.\main.c      **** 			//      Motor type (0 to 4)
 221:.\main.c      ****             
 222:.\main.c      ****             eraseMotorType(canPacket[1]);
 630              		.loc 1 222 0
 631 045e 7B68     		ldr	r3, [r7, #4]
 632 0460 0133     		adds	r3, r3, #1
 633 0462 1B78     		ldrb	r3, [r3]	@ zero_extendqisi2
ARM GAS  C:\Users\GUILLA~1\AppData\Local\Temp\ccBt0odi.s 			page 16


 634 0464 1846     		mov	r0, r3
 635 0466 FFF7FEFF 		bl	eraseMotorType
 223:.\main.c      ****             saveMotorType(canPacket[1], canPacket[2]);
 636              		.loc 1 223 0
 637 046a 7B68     		ldr	r3, [r7, #4]
 638 046c 0133     		adds	r3, r3, #1
 639 046e 1A78     		ldrb	r2, [r3]	@ zero_extendqisi2
 640 0470 7B68     		ldr	r3, [r7, #4]
 641 0472 0233     		adds	r3, r3, #2
 642 0474 1B78     		ldrb	r3, [r3]	@ zero_extendqisi2
 643 0476 1046     		mov	r0, r2
 644 0478 1946     		mov	r1, r3
 645 047a FFF7FEFF 		bl	saveMotorType
 224:.\main.c      ****             
 225:.\main.c      ****             //Quick fix to unlock PC APP
 226:.\main.c      ****             sendDataToCAN(CAN_INSTRUCTION_SET_MOTOR_TYPE, CAN_HARDWARE_FILTER_ID, 0x00, 0x00, 0x00,
 646              		.loc 1 226 0
 647 047e 0023     		movs	r3, #0
 648 0480 0093     		str	r3, [sp]
 649 0482 0023     		movs	r3, #0
 650 0484 0193     		str	r3, [sp, #4]
 651 0486 0023     		movs	r3, #0
 652 0488 0293     		str	r3, [sp, #8]
 653 048a 0023     		movs	r3, #0
 654 048c 0393     		str	r3, [sp, #12]
 655 048e 0E20     		movs	r0, #14
 656 0490 3021     		movs	r1, #48
 657 0492 0022     		movs	r2, #0
 658 0494 0023     		movs	r3, #0
 659 0496 FFF7FEFF 		bl	sendDataToCAN
 227:.\main.c      ****             break;
 660              		.loc 1 227 0
 661 049a 00BF     		nop
 662              	.L2:
 228:.\main.c      ****             
 229:.\main.c      ****     }
 230:.\main.c      ****     return 0;
 663              		.loc 1 230 0
 664 049c 0023     		movs	r3, #0
 231:.\main.c      **** }
 665              		.loc 1 231 0
 666 049e 1846     		mov	r0, r3
 667 04a0 1437     		adds	r7, r7, #20
 668              		.cfi_def_cfa_offset 12
 669 04a2 BD46     		mov	sp, r7
 670              		.cfi_def_cfa_register 13
 671              		@ sp needed
 672 04a4 90BD     		pop	{r4, r7, pc}
 673              		.cfi_endproc
 674              	.LFE56:
 675              		.size	treatCanMessage, .-treatCanMessage
 676 04a6 00BF     		.section	.text.CounterCanInterruptHandler,"ax",%progbits
 677              		.align	2
 678              		.global	CounterCanInterruptHandler
 679              		.thumb
 680              		.thumb_func
 681              		.type	CounterCanInterruptHandler, %function
ARM GAS  C:\Users\GUILLA~1\AppData\Local\Temp\ccBt0odi.s 			page 17


 682              	CounterCanInterruptHandler:
 683              	.LFB57:
 232:.\main.c      **** 
 233:.\main.c      **** /*******************************************************************************
 234:.\main.c      **** * COUNTER CAN READER INTERRUPT ROUTINE
 235:.\main.c      **** ********************************************************************************/
 236:.\main.c      **** CY_ISR(CounterCanInterruptHandler)
 237:.\main.c      **** {
 684              		.loc 1 237 0
 685              		.cfi_startproc
 686              		@ args = 0, pretend = 0, frame = 0
 687              		@ frame_needed = 1, uses_anonymous_args = 0
 688              		@ link register save eliminated.
 689 0000 80B4     		push	{r7}
 690              		.cfi_def_cfa_offset 4
 691              		.cfi_offset 7, -4
 692 0002 00AF     		add	r7, sp, #0
 693              		.cfi_def_cfa_register 7
 238:.\main.c      **** 	/* Read Status register in order to clear the sticky Terminal Count (TC) bit 
 239:.\main.c      **** 	 * in the status register. 
 240:.\main.c      ****      */
 241:.\main.c      ****     Counter_CanReader_STATUS;
 694              		.loc 1 241 0
 695 0004 044B     		ldr	r3, .L26
 696 0006 1B78     		ldrb	r3, [r3]
 242:.\main.c      ****     readCanMessage = 1;
 697              		.loc 1 242 0
 698 0008 044B     		ldr	r3, .L26+4
 699 000a 0122     		movs	r2, #1
 700 000c 1A70     		strb	r2, [r3]
 243:.\main.c      **** }
 701              		.loc 1 243 0
 702 000e BD46     		mov	sp, r7
 703              		.cfi_def_cfa_register 13
 704              		@ sp needed
 705 0010 5DF8047B 		ldr	r7, [sp], #4
 706              		.cfi_restore 7
 707              		.cfi_def_cfa_offset 0
 708 0014 7047     		bx	lr
 709              	.L27:
 710 0016 00BF     		.align	2
 711              	.L26:
 712 0018 034F0040 		.word	1073762051
 713 001c 00000000 		.word	readCanMessage
 714              		.cfi_endproc
 715              	.LFE57:
 716              		.size	CounterCanInterruptHandler, .-CounterCanInterruptHandler
 717              		.section	.text.main,"ax",%progbits
 718              		.align	2
 719              		.global	main
 720              		.thumb
 721              		.thumb_func
 722              		.type	main, %function
 723              	main:
 724              	.LFB58:
 244:.\main.c      **** 
 245:.\main.c      **** 
ARM GAS  C:\Users\GUILLA~1\AppData\Local\Temp\ccBt0odi.s 			page 18


 246:.\main.c      **** int main()
 247:.\main.c      **** {
 725              		.loc 1 247 0
 726              		.cfi_startproc
 727              		@ args = 0, pretend = 0, frame = 16
 728              		@ frame_needed = 1, uses_anonymous_args = 0
 729 0000 80B5     		push	{r7, lr}
 730              		.cfi_def_cfa_offset 8
 731              		.cfi_offset 7, -8
 732              		.cfi_offset 14, -4
 733 0002 84B0     		sub	sp, sp, #16
 734              		.cfi_def_cfa_offset 24
 735 0004 00AF     		add	r7, sp, #0
 736              		.cfi_def_cfa_register 7
 248:.\main.c      ****     init_eeprom();
 737              		.loc 1 248 0
 738 0006 FFF7FEFF 		bl	init_eeprom
 249:.\main.c      ****     readEeprom();
 739              		.loc 1 249 0
 740 000a FFF7FEFF 		bl	readEeprom
 250:.\main.c      ****     
 251:.\main.c      ****     init_uart_dynamixel();
 741              		.loc 1 251 0
 742 000e FFF7FEFF 		bl	init_uart_dynamixel
 252:.\main.c      ****     init_can_module();
 743              		.loc 1 252 0
 744 0012 FFF7FEFF 		bl	init_can_module
 253:.\main.c      ****     Z_Axis_Init();
 745              		.loc 1 253 0
 746 0016 FFF7FEFF 		bl	Z_Axis_Init
 254:.\main.c      ****     
 255:.\main.c      ****     SETCLOCK_4MHZ;
 747              		.loc 1 255 0
 748 001a FFF7FEFF 		bl	ControlReg_Read
 749 001e 0346     		mov	r3, r0
 750 0020 43F00103 		orr	r3, r3, #1
 751 0024 DBB2     		uxtb	r3, r3
 752 0026 1846     		mov	r0, r3
 753 0028 FFF7FEFF 		bl	ControlReg_Write
 256:.\main.c      ****     CyGlobalIntEnable; // Enable Global Interrupts
 754              		.loc 1 256 0
 755              	@ 256 ".\main.c" 1
 756 002c 62B6     		CPSIE   i
 757              	@ 0 "" 2
 758              		.thumb
 759              	.L30:
 257:.\main.c      **** 
 258:.\main.c      **** 	for(;;){
 259:.\main.c      ****         
 260:.\main.c      ****         
 261:.\main.c      ****         //Verify if a message needs to be treated in the message received buffer.       
 262:.\main.c      ****         if(readCanMessage == 1 && messageToBeTreatedCount > 0)
 760              		.loc 1 262 0
 761 002e 0A4B     		ldr	r3, .L31
 762 0030 1B78     		ldrb	r3, [r3]
 763 0032 DBB2     		uxtb	r3, r3
 764 0034 012B     		cmp	r3, #1
ARM GAS  C:\Users\GUILLA~1\AppData\Local\Temp\ccBt0odi.s 			page 19


 765 0036 0ED1     		bne	.L29
 766              		.loc 1 262 0 is_stmt 0 discriminator 1
 767 0038 084B     		ldr	r3, .L31+4
 768 003a 1B68     		ldr	r3, [r3]
 769 003c 002B     		cmp	r3, #0
 770 003e 0ADD     		ble	.L29
 771              	.LBB2:
 263:.\main.c      ****         {
 264:.\main.c      ****             readCanMessage = 0;
 772              		.loc 1 264 0 is_stmt 1
 773 0040 054B     		ldr	r3, .L31
 774 0042 0022     		movs	r2, #0
 775 0044 1A70     		strb	r2, [r3]
 265:.\main.c      ****             // Treat the last message received and echo it back on the CAN bus as an acknowledgemen
 266:.\main.c      ****             CAN_MSG msgToTreat = can_getReceivedMessage(); 
 776              		.loc 1 266 0
 777 0046 3B46     		mov	r3, r7
 778 0048 1846     		mov	r0, r3
 779 004a FFF7FEFF 		bl	can_getReceivedMessage
 267:.\main.c      ****             treatCanMessage(msgToTreat.msgBytes.byte);
 780              		.loc 1 267 0
 781 004e 3B46     		mov	r3, r7
 782 0050 1846     		mov	r0, r3
 783 0052 FFF7FEFF 		bl	treatCanMessage
 784              	.L29:
 785              	.LBE2:
 268:.\main.c      ****         }//*/
 269:.\main.c      ****     
 270:.\main.c      ****     }
 786              		.loc 1 270 0 discriminator 1
 787 0056 EAE7     		b	.L30
 788              	.L32:
 789              		.align	2
 790              	.L31:
 791 0058 00000000 		.word	readCanMessage
 792 005c 00000000 		.word	messageToBeTreatedCount
 793              		.cfi_endproc
 794              	.LFE58:
 795              		.size	main, .-main
 796              		.section	.text.init_can_module,"ax",%progbits
 797              		.align	2
 798              		.global	init_can_module
 799              		.thumb
 800              		.thumb_func
 801              		.type	init_can_module, %function
 802              	init_can_module:
 803              	.LFB59:
 271:.\main.c      **** }
 272:.\main.c      **** 
 273:.\main.c      **** 
 274:.\main.c      **** /******************************************************************************
 275:.\main.c      **** * HELPER FUNCTIONS
 276:.\main.c      **** *******************************************************************************/
 277:.\main.c      **** 
 278:.\main.c      **** void init_can_module()
 279:.\main.c      **** {
 804              		.loc 1 279 0
ARM GAS  C:\Users\GUILLA~1\AppData\Local\Temp\ccBt0odi.s 			page 20


 805              		.cfi_startproc
 806              		@ args = 0, pretend = 0, frame = 0
 807              		@ frame_needed = 1, uses_anonymous_args = 0
 808 0000 80B5     		push	{r7, lr}
 809              		.cfi_def_cfa_offset 8
 810              		.cfi_offset 7, -8
 811              		.cfi_offset 14, -4
 812 0002 00AF     		add	r7, sp, #0
 813              		.cfi_def_cfa_register 7
 280:.\main.c      ****     // Initializing required components for CAN communication
 281:.\main.c      ****     CAN_1_Start();
 814              		.loc 1 281 0
 815 0004 FFF7FEFF 		bl	CAN_1_Start
 282:.\main.c      ****     CAN_1_GlobalIntEnable();
 816              		.loc 1 282 0
 817 0008 FFF7FEFF 		bl	CAN_1_GlobalIntEnable
 283:.\main.c      ****     CAN_Standby_Write(0);
 818              		.loc 1 283 0
 819 000c 0020     		movs	r0, #0
 820 000e FFF7FEFF 		bl	CAN_Standby_Write
 284:.\main.c      ****     
 285:.\main.c      ****     // CAN message are read every time the counter turns to zero
 286:.\main.c      ****     CanReaderISR_StartEx(CounterCanInterruptHandler);
 821              		.loc 1 286 0
 822 0012 0348     		ldr	r0, .L34
 823 0014 FFF7FEFF 		bl	CanReaderISR_StartEx
 287:.\main.c      ****     Counter_CanReader_Start();
 824              		.loc 1 287 0
 825 0018 FFF7FEFF 		bl	Counter_CanReader_Start
 288:.\main.c      **** }
 826              		.loc 1 288 0
 827 001c 80BD     		pop	{r7, pc}
 828              	.L35:
 829 001e 00BF     		.align	2
 830              	.L34:
 831 0020 00000000 		.word	CounterCanInterruptHandler
 832              		.cfi_endproc
 833              	.LFE59:
 834              		.size	init_can_module, .-init_can_module
 835              		.text
 836              	.Letext0:
 837              		.file 2 "c:\\program files (x86)\\cypress\\psoc creator\\3.3\\psoc creator\\import\\gnu\\arm\\4.9.
 838              		.file 3 "c:\\program files (x86)\\cypress\\psoc creator\\3.3\\psoc creator\\import\\gnu\\arm\\4.9.
 839              		.file 4 "Generated_Source\\PSoC5/cytypes.h"
 840              		.file 5 "Generated_Source\\PSoC5/CAN_1.h"
 841              		.file 6 ".\\CANCommunication.h"
 842              		.file 7 "Generated_Source\\PSoC5/core_cm3.h"
 843              		.file 8 ".\\gripperEeprom.h"
 844              		.section	.debug_info,"",%progbits
 845              	.Ldebug_info0:
 846 0000 91020000 		.4byte	0x291
 847 0004 0400     		.2byte	0x4
 848 0006 00000000 		.4byte	.Ldebug_abbrev0
 849 000a 04       		.byte	0x4
 850 000b 01       		.uleb128 0x1
 851 000c 45000000 		.4byte	.LASF36
 852 0010 01       		.byte	0x1
ARM GAS  C:\Users\GUILLA~1\AppData\Local\Temp\ccBt0odi.s 			page 21


 853 0011 F2000000 		.4byte	.LASF37
 854 0015 7B020000 		.4byte	.LASF38
 855 0019 00000000 		.4byte	.Ldebug_ranges0+0
 856 001d 00000000 		.4byte	0
 857 0021 00000000 		.4byte	.Ldebug_line0
 858 0025 02       		.uleb128 0x2
 859 0026 01       		.byte	0x1
 860 0027 06       		.byte	0x6
 861 0028 D3020000 		.4byte	.LASF0
 862 002c 02       		.uleb128 0x2
 863 002d 01       		.byte	0x1
 864 002e 08       		.byte	0x8
 865 002f 01010000 		.4byte	.LASF1
 866 0033 02       		.uleb128 0x2
 867 0034 02       		.byte	0x2
 868 0035 05       		.byte	0x5
 869 0036 6B020000 		.4byte	.LASF2
 870 003a 02       		.uleb128 0x2
 871 003b 02       		.byte	0x2
 872 003c 07       		.byte	0x7
 873 003d 57010000 		.4byte	.LASF3
 874 0041 03       		.uleb128 0x3
 875 0042 23000000 		.4byte	.LASF9
 876 0046 02       		.byte	0x2
 877 0047 3F       		.byte	0x3f
 878 0048 4C000000 		.4byte	0x4c
 879 004c 02       		.uleb128 0x2
 880 004d 04       		.byte	0x4
 881 004e 05       		.byte	0x5
 882 004f CA020000 		.4byte	.LASF4
 883 0053 02       		.uleb128 0x2
 884 0054 04       		.byte	0x4
 885 0055 07       		.byte	0x7
 886 0056 45010000 		.4byte	.LASF5
 887 005a 02       		.uleb128 0x2
 888 005b 08       		.byte	0x8
 889 005c 05       		.byte	0x5
 890 005d 16020000 		.4byte	.LASF6
 891 0061 02       		.uleb128 0x2
 892 0062 08       		.byte	0x8
 893 0063 07       		.byte	0x7
 894 0064 C7010000 		.4byte	.LASF7
 895 0068 04       		.uleb128 0x4
 896 0069 04       		.byte	0x4
 897 006a 05       		.byte	0x5
 898 006b 696E7400 		.ascii	"int\000"
 899 006f 02       		.uleb128 0x2
 900 0070 04       		.byte	0x4
 901 0071 07       		.byte	0x7
 902 0072 BA010000 		.4byte	.LASF8
 903 0076 03       		.uleb128 0x3
 904 0077 F2010000 		.4byte	.LASF10
 905 007b 03       		.byte	0x3
 906 007c 2C       		.byte	0x2c
 907 007d 41000000 		.4byte	0x41
 908 0081 03       		.uleb128 0x3
 909 0082 75020000 		.4byte	.LASF11
ARM GAS  C:\Users\GUILLA~1\AppData\Local\Temp\ccBt0odi.s 			page 22


 910 0086 04       		.byte	0x4
 911 0087 A1       		.byte	0xa1
 912 0088 2C000000 		.4byte	0x2c
 913 008c 03       		.uleb128 0x3
 914 008d 90010000 		.4byte	.LASF12
 915 0091 04       		.byte	0x4
 916 0092 A2       		.byte	0xa2
 917 0093 3A000000 		.4byte	0x3a
 918 0097 03       		.uleb128 0x3
 919 0098 AC010000 		.4byte	.LASF13
 920 009c 04       		.byte	0x4
 921 009d A3       		.byte	0xa3
 922 009e 53000000 		.4byte	0x53
 923 00a2 02       		.uleb128 0x2
 924 00a3 04       		.byte	0x4
 925 00a4 04       		.byte	0x4
 926 00a5 FB000000 		.4byte	.LASF14
 927 00a9 02       		.uleb128 0x2
 928 00aa 08       		.byte	0x8
 929 00ab 04       		.byte	0x4
 930 00ac 89010000 		.4byte	.LASF15
 931 00b0 02       		.uleb128 0x2
 932 00b1 01       		.byte	0x1
 933 00b2 08       		.byte	0x8
 934 00b3 2E020000 		.4byte	.LASF16
 935 00b7 05       		.uleb128 0x5
 936 00b8 2F010000 		.4byte	.LASF17
 937 00bc 04       		.byte	0x4
 938 00bd 4B01     		.2byte	0x14b
 939 00bf C3000000 		.4byte	0xc3
 940 00c3 06       		.uleb128 0x6
 941 00c4 81000000 		.4byte	0x81
 942 00c8 02       		.uleb128 0x2
 943 00c9 04       		.byte	0x4
 944 00ca 07       		.byte	0x7
 945 00cb FA010000 		.4byte	.LASF18
 946 00cf 07       		.uleb128 0x7
 947 00d0 08       		.byte	0x8
 948 00d1 05       		.byte	0x5
 949 00d2 6F       		.byte	0x6f
 950 00d3 E4000000 		.4byte	0xe4
 951 00d7 08       		.uleb128 0x8
 952 00d8 D3000000 		.4byte	.LASF20
 953 00dc 05       		.byte	0x5
 954 00dd 71       		.byte	0x71
 955 00de E4000000 		.4byte	0xe4
 956 00e2 00       		.byte	0
 957 00e3 00       		.byte	0
 958 00e4 09       		.uleb128 0x9
 959 00e5 81000000 		.4byte	0x81
 960 00e9 F4000000 		.4byte	0xf4
 961 00ed 0A       		.uleb128 0xa
 962 00ee C8000000 		.4byte	0xc8
 963 00f2 07       		.byte	0x7
 964 00f3 00       		.byte	0
 965 00f4 03       		.uleb128 0x3
 966 00f5 33020000 		.4byte	.LASF19
ARM GAS  C:\Users\GUILLA~1\AppData\Local\Temp\ccBt0odi.s 			page 23


 967 00f9 05       		.byte	0x5
 968 00fa 72       		.byte	0x72
 969 00fb CF000000 		.4byte	0xcf
 970 00ff 07       		.uleb128 0x7
 971 0100 10       		.byte	0x10
 972 0101 06       		.byte	0x6
 973 0102 22       		.byte	0x22
 974 0103 2C010000 		.4byte	0x12c
 975 0107 08       		.uleb128 0x8
 976 0108 62020000 		.4byte	.LASF21
 977 010c 06       		.byte	0x6
 978 010d 27       		.byte	0x27
 979 010e F4000000 		.4byte	0xf4
 980 0112 00       		.byte	0
 981 0113 0B       		.uleb128 0xb
 982 0114 444C4300 		.ascii	"DLC\000"
 983 0118 06       		.byte	0x6
 984 0119 28       		.byte	0x28
 985 011a 81000000 		.4byte	0x81
 986 011e 08       		.byte	0x8
 987 011f 08       		.uleb128 0x8
 988 0120 B3010000 		.4byte	.LASF22
 989 0124 06       		.byte	0x6
 990 0125 29       		.byte	0x29
 991 0126 97000000 		.4byte	0x97
 992 012a 0C       		.byte	0xc
 993 012b 00       		.byte	0
 994 012c 03       		.uleb128 0x3
 995 012d 00000000 		.4byte	.LASF23
 996 0131 06       		.byte	0x6
 997 0132 2A       		.byte	0x2a
 998 0133 FF000000 		.4byte	0xff
 999 0137 0C       		.uleb128 0xc
 1000 0138 9C010000 		.4byte	.LASF39
 1001 013c 01       		.byte	0x1
 1002 013d 28       		.byte	0x28
 1003 013e 81000000 		.4byte	0x81
 1004 0142 00000000 		.4byte	.LFB56
 1005 0146 A6040000 		.4byte	.LFE56-.LFB56
 1006 014a 01       		.uleb128 0x1
 1007 014b 9C       		.byte	0x9c
 1008 014c 7B010000 		.4byte	0x17b
 1009 0150 0D       		.uleb128 0xd
 1010 0151 48020000 		.4byte	.LASF40
 1011 0155 01       		.byte	0x1
 1012 0156 28       		.byte	0x28
 1013 0157 7B010000 		.4byte	0x17b
 1014 015b 02       		.uleb128 0x2
 1015 015c 91       		.byte	0x91
 1016 015d 64       		.sleb128 -28
 1017 015e 0E       		.uleb128 0xe
 1018 015f 1C010000 		.4byte	.LASF24
 1019 0163 01       		.byte	0x1
 1020 0164 2A       		.byte	0x2a
 1021 0165 8C000000 		.4byte	0x8c
 1022 0169 02       		.uleb128 0x2
 1023 016a 91       		.byte	0x91
ARM GAS  C:\Users\GUILLA~1\AppData\Local\Temp\ccBt0odi.s 			page 24


 1024 016b 6E       		.sleb128 -18
 1025 016c 0E       		.uleb128 0xe
 1026 016d 77010000 		.4byte	.LASF25
 1027 0171 01       		.byte	0x1
 1028 0172 2B       		.byte	0x2b
 1029 0173 8C000000 		.4byte	0x8c
 1030 0177 02       		.uleb128 0x2
 1031 0178 91       		.byte	0x91
 1032 0179 6C       		.sleb128 -20
 1033 017a 00       		.byte	0
 1034 017b 0F       		.uleb128 0xf
 1035 017c 04       		.byte	0x4
 1036 017d 81000000 		.4byte	0x81
 1037 0181 10       		.uleb128 0x10
 1038 0182 08000000 		.4byte	.LASF41
 1039 0186 01       		.byte	0x1
 1040 0187 EC       		.byte	0xec
 1041 0188 00000000 		.4byte	.LFB57
 1042 018c 20000000 		.4byte	.LFE57-.LFB57
 1043 0190 01       		.uleb128 0x1
 1044 0191 9C       		.byte	0x9c
 1045 0192 11       		.uleb128 0x11
 1046 0193 97010000 		.4byte	.LASF42
 1047 0197 01       		.byte	0x1
 1048 0198 F6       		.byte	0xf6
 1049 0199 68000000 		.4byte	0x68
 1050 019d 00000000 		.4byte	.LFB58
 1051 01a1 60000000 		.4byte	.LFE58-.LFB58
 1052 01a5 01       		.uleb128 0x1
 1053 01a6 9C       		.byte	0x9c
 1054 01a7 C5010000 		.4byte	0x1c5
 1055 01ab 12       		.uleb128 0x12
 1056 01ac 40000000 		.4byte	.LBB2
 1057 01b0 16000000 		.4byte	.LBE2-.LBB2
 1058 01b4 13       		.uleb128 0x13
 1059 01b5 E7000000 		.4byte	.LASF26
 1060 01b9 01       		.byte	0x1
 1061 01ba 0A01     		.2byte	0x10a
 1062 01bc 2C010000 		.4byte	0x12c
 1063 01c0 02       		.uleb128 0x2
 1064 01c1 91       		.byte	0x91
 1065 01c2 68       		.sleb128 -24
 1066 01c3 00       		.byte	0
 1067 01c4 00       		.byte	0
 1068 01c5 14       		.uleb128 0x14
 1069 01c6 52020000 		.4byte	.LASF43
 1070 01ca 01       		.byte	0x1
 1071 01cb 1601     		.2byte	0x116
 1072 01cd 00000000 		.4byte	.LFB59
 1073 01d1 24000000 		.4byte	.LFE59-.LFB59
 1074 01d5 01       		.uleb128 0x1
 1075 01d6 9C       		.byte	0x9c
 1076 01d7 15       		.uleb128 0x15
 1077 01d8 6A010000 		.4byte	.LASF27
 1078 01dc 07       		.byte	0x7
 1079 01dd 1606     		.2byte	0x616
 1080 01df E3010000 		.4byte	0x1e3
ARM GAS  C:\Users\GUILLA~1\AppData\Local\Temp\ccBt0odi.s 			page 25


 1081 01e3 06       		.uleb128 0x6
 1082 01e4 76000000 		.4byte	0x76
 1083 01e8 16       		.uleb128 0x16
 1084 01e9 DE010000 		.4byte	.LASF28
 1085 01ed 01       		.byte	0x1
 1086 01ee 1E       		.byte	0x1e
 1087 01ef 68000000 		.4byte	0x68
 1088 01f3 05       		.uleb128 0x5
 1089 01f4 03       		.byte	0x3
 1090 01f5 00000000 		.4byte	msgToBeTreatedIndex
 1091 01f9 16       		.uleb128 0x16
 1092 01fa 03020000 		.4byte	.LASF29
 1093 01fe 01       		.byte	0x1
 1094 01ff 1F       		.byte	0x1f
 1095 0200 68000000 		.4byte	0x68
 1096 0204 05       		.uleb128 0x5
 1097 0205 03       		.byte	0x3
 1098 0206 00000000 		.4byte	msgToBeStoredIndex
 1099 020a 16       		.uleb128 0x16
 1100 020b 2D000000 		.4byte	.LASF30
 1101 020f 01       		.byte	0x1
 1102 0210 1D       		.byte	0x1d
 1103 0211 68000000 		.4byte	0x68
 1104 0215 05       		.uleb128 0x5
 1105 0216 03       		.byte	0x3
 1106 0217 00000000 		.4byte	messageToBeTreatedCount
 1107 021b 09       		.uleb128 0x9
 1108 021c 2C010000 		.4byte	0x12c
 1109 0220 2B020000 		.4byte	0x22b
 1110 0224 0A       		.uleb128 0xa
 1111 0225 C8000000 		.4byte	0xc8
 1112 0229 31       		.byte	0x31
 1113 022a 00       		.byte	0
 1114 022b 16       		.uleb128 0x16
 1115 022c 0F010000 		.4byte	.LASF31
 1116 0230 01       		.byte	0x1
 1117 0231 20       		.byte	0x20
 1118 0232 1B020000 		.4byte	0x21b
 1119 0236 05       		.uleb128 0x5
 1120 0237 03       		.byte	0x3
 1121 0238 00000000 		.4byte	receivedMsgs
 1122 023c 09       		.uleb128 0x9
 1123 023d 8C000000 		.4byte	0x8c
 1124 0241 4C020000 		.4byte	0x24c
 1125 0245 0A       		.uleb128 0xa
 1126 0246 C8000000 		.4byte	0xc8
 1127 024a 03       		.byte	0x3
 1128 024b 00       		.byte	0
 1129 024c 17       		.uleb128 0x17
 1130 024d 34010000 		.4byte	.LASF32
 1131 0251 08       		.byte	0x8
 1132 0252 27       		.byte	0x27
 1133 0253 3C020000 		.4byte	0x23c
 1134 0257 09       		.uleb128 0x9
 1135 0258 81000000 		.4byte	0x81
 1136 025c 67020000 		.4byte	0x267
 1137 0260 0A       		.uleb128 0xa
ARM GAS  C:\Users\GUILLA~1\AppData\Local\Temp\ccBt0odi.s 			page 26


 1138 0261 C8000000 		.4byte	0xc8
 1139 0265 04       		.byte	0x4
 1140 0266 00       		.byte	0
 1141 0267 17       		.uleb128 0x17
 1142 0268 24020000 		.4byte	.LASF33
 1143 026c 08       		.byte	0x8
 1144 026d 31       		.byte	0x31
 1145 026e 57020000 		.4byte	0x257
 1146 0272 16       		.uleb128 0x16
 1147 0273 D8000000 		.4byte	.LASF34
 1148 0277 01       		.byte	0x1
 1149 0278 23       		.byte	0x23
 1150 0279 C3000000 		.4byte	0xc3
 1151 027d 05       		.uleb128 0x5
 1152 027e 03       		.byte	0x3
 1153 027f 00000000 		.4byte	readCanMessage
 1154 0283 16       		.uleb128 0x16
 1155 0284 DF020000 		.4byte	.LASF35
 1156 0288 01       		.byte	0x1
 1157 0289 24       		.byte	0x24
 1158 028a 81000000 		.4byte	0x81
 1159 028e 05       		.uleb128 0x5
 1160 028f 03       		.byte	0x3
 1161 0290 00000000 		.4byte	treatingAddress
 1162 0294 00       		.byte	0
 1163              		.section	.debug_abbrev,"",%progbits
 1164              	.Ldebug_abbrev0:
 1165 0000 01       		.uleb128 0x1
 1166 0001 11       		.uleb128 0x11
 1167 0002 01       		.byte	0x1
 1168 0003 25       		.uleb128 0x25
 1169 0004 0E       		.uleb128 0xe
 1170 0005 13       		.uleb128 0x13
 1171 0006 0B       		.uleb128 0xb
 1172 0007 03       		.uleb128 0x3
 1173 0008 0E       		.uleb128 0xe
 1174 0009 1B       		.uleb128 0x1b
 1175 000a 0E       		.uleb128 0xe
 1176 000b 55       		.uleb128 0x55
 1177 000c 17       		.uleb128 0x17
 1178 000d 11       		.uleb128 0x11
 1179 000e 01       		.uleb128 0x1
 1180 000f 10       		.uleb128 0x10
 1181 0010 17       		.uleb128 0x17
 1182 0011 00       		.byte	0
 1183 0012 00       		.byte	0
 1184 0013 02       		.uleb128 0x2
 1185 0014 24       		.uleb128 0x24
 1186 0015 00       		.byte	0
 1187 0016 0B       		.uleb128 0xb
 1188 0017 0B       		.uleb128 0xb
 1189 0018 3E       		.uleb128 0x3e
 1190 0019 0B       		.uleb128 0xb
 1191 001a 03       		.uleb128 0x3
 1192 001b 0E       		.uleb128 0xe
 1193 001c 00       		.byte	0
 1194 001d 00       		.byte	0
ARM GAS  C:\Users\GUILLA~1\AppData\Local\Temp\ccBt0odi.s 			page 27


 1195 001e 03       		.uleb128 0x3
 1196 001f 16       		.uleb128 0x16
 1197 0020 00       		.byte	0
 1198 0021 03       		.uleb128 0x3
 1199 0022 0E       		.uleb128 0xe
 1200 0023 3A       		.uleb128 0x3a
 1201 0024 0B       		.uleb128 0xb
 1202 0025 3B       		.uleb128 0x3b
 1203 0026 0B       		.uleb128 0xb
 1204 0027 49       		.uleb128 0x49
 1205 0028 13       		.uleb128 0x13
 1206 0029 00       		.byte	0
 1207 002a 00       		.byte	0
 1208 002b 04       		.uleb128 0x4
 1209 002c 24       		.uleb128 0x24
 1210 002d 00       		.byte	0
 1211 002e 0B       		.uleb128 0xb
 1212 002f 0B       		.uleb128 0xb
 1213 0030 3E       		.uleb128 0x3e
 1214 0031 0B       		.uleb128 0xb
 1215 0032 03       		.uleb128 0x3
 1216 0033 08       		.uleb128 0x8
 1217 0034 00       		.byte	0
 1218 0035 00       		.byte	0
 1219 0036 05       		.uleb128 0x5
 1220 0037 16       		.uleb128 0x16
 1221 0038 00       		.byte	0
 1222 0039 03       		.uleb128 0x3
 1223 003a 0E       		.uleb128 0xe
 1224 003b 3A       		.uleb128 0x3a
 1225 003c 0B       		.uleb128 0xb
 1226 003d 3B       		.uleb128 0x3b
 1227 003e 05       		.uleb128 0x5
 1228 003f 49       		.uleb128 0x49
 1229 0040 13       		.uleb128 0x13
 1230 0041 00       		.byte	0
 1231 0042 00       		.byte	0
 1232 0043 06       		.uleb128 0x6
 1233 0044 35       		.uleb128 0x35
 1234 0045 00       		.byte	0
 1235 0046 49       		.uleb128 0x49
 1236 0047 13       		.uleb128 0x13
 1237 0048 00       		.byte	0
 1238 0049 00       		.byte	0
 1239 004a 07       		.uleb128 0x7
 1240 004b 13       		.uleb128 0x13
 1241 004c 01       		.byte	0x1
 1242 004d 0B       		.uleb128 0xb
 1243 004e 0B       		.uleb128 0xb
 1244 004f 3A       		.uleb128 0x3a
 1245 0050 0B       		.uleb128 0xb
 1246 0051 3B       		.uleb128 0x3b
 1247 0052 0B       		.uleb128 0xb
 1248 0053 01       		.uleb128 0x1
 1249 0054 13       		.uleb128 0x13
 1250 0055 00       		.byte	0
 1251 0056 00       		.byte	0
ARM GAS  C:\Users\GUILLA~1\AppData\Local\Temp\ccBt0odi.s 			page 28


 1252 0057 08       		.uleb128 0x8
 1253 0058 0D       		.uleb128 0xd
 1254 0059 00       		.byte	0
 1255 005a 03       		.uleb128 0x3
 1256 005b 0E       		.uleb128 0xe
 1257 005c 3A       		.uleb128 0x3a
 1258 005d 0B       		.uleb128 0xb
 1259 005e 3B       		.uleb128 0x3b
 1260 005f 0B       		.uleb128 0xb
 1261 0060 49       		.uleb128 0x49
 1262 0061 13       		.uleb128 0x13
 1263 0062 38       		.uleb128 0x38
 1264 0063 0B       		.uleb128 0xb
 1265 0064 00       		.byte	0
 1266 0065 00       		.byte	0
 1267 0066 09       		.uleb128 0x9
 1268 0067 01       		.uleb128 0x1
 1269 0068 01       		.byte	0x1
 1270 0069 49       		.uleb128 0x49
 1271 006a 13       		.uleb128 0x13
 1272 006b 01       		.uleb128 0x1
 1273 006c 13       		.uleb128 0x13
 1274 006d 00       		.byte	0
 1275 006e 00       		.byte	0
 1276 006f 0A       		.uleb128 0xa
 1277 0070 21       		.uleb128 0x21
 1278 0071 00       		.byte	0
 1279 0072 49       		.uleb128 0x49
 1280 0073 13       		.uleb128 0x13
 1281 0074 2F       		.uleb128 0x2f
 1282 0075 0B       		.uleb128 0xb
 1283 0076 00       		.byte	0
 1284 0077 00       		.byte	0
 1285 0078 0B       		.uleb128 0xb
 1286 0079 0D       		.uleb128 0xd
 1287 007a 00       		.byte	0
 1288 007b 03       		.uleb128 0x3
 1289 007c 08       		.uleb128 0x8
 1290 007d 3A       		.uleb128 0x3a
 1291 007e 0B       		.uleb128 0xb
 1292 007f 3B       		.uleb128 0x3b
 1293 0080 0B       		.uleb128 0xb
 1294 0081 49       		.uleb128 0x49
 1295 0082 13       		.uleb128 0x13
 1296 0083 38       		.uleb128 0x38
 1297 0084 0B       		.uleb128 0xb
 1298 0085 00       		.byte	0
 1299 0086 00       		.byte	0
 1300 0087 0C       		.uleb128 0xc
 1301 0088 2E       		.uleb128 0x2e
 1302 0089 01       		.byte	0x1
 1303 008a 3F       		.uleb128 0x3f
 1304 008b 19       		.uleb128 0x19
 1305 008c 03       		.uleb128 0x3
 1306 008d 0E       		.uleb128 0xe
 1307 008e 3A       		.uleb128 0x3a
 1308 008f 0B       		.uleb128 0xb
ARM GAS  C:\Users\GUILLA~1\AppData\Local\Temp\ccBt0odi.s 			page 29


 1309 0090 3B       		.uleb128 0x3b
 1310 0091 0B       		.uleb128 0xb
 1311 0092 27       		.uleb128 0x27
 1312 0093 19       		.uleb128 0x19
 1313 0094 49       		.uleb128 0x49
 1314 0095 13       		.uleb128 0x13
 1315 0096 11       		.uleb128 0x11
 1316 0097 01       		.uleb128 0x1
 1317 0098 12       		.uleb128 0x12
 1318 0099 06       		.uleb128 0x6
 1319 009a 40       		.uleb128 0x40
 1320 009b 18       		.uleb128 0x18
 1321 009c 9642     		.uleb128 0x2116
 1322 009e 19       		.uleb128 0x19
 1323 009f 01       		.uleb128 0x1
 1324 00a0 13       		.uleb128 0x13
 1325 00a1 00       		.byte	0
 1326 00a2 00       		.byte	0
 1327 00a3 0D       		.uleb128 0xd
 1328 00a4 05       		.uleb128 0x5
 1329 00a5 00       		.byte	0
 1330 00a6 03       		.uleb128 0x3
 1331 00a7 0E       		.uleb128 0xe
 1332 00a8 3A       		.uleb128 0x3a
 1333 00a9 0B       		.uleb128 0xb
 1334 00aa 3B       		.uleb128 0x3b
 1335 00ab 0B       		.uleb128 0xb
 1336 00ac 49       		.uleb128 0x49
 1337 00ad 13       		.uleb128 0x13
 1338 00ae 02       		.uleb128 0x2
 1339 00af 18       		.uleb128 0x18
 1340 00b0 00       		.byte	0
 1341 00b1 00       		.byte	0
 1342 00b2 0E       		.uleb128 0xe
 1343 00b3 34       		.uleb128 0x34
 1344 00b4 00       		.byte	0
 1345 00b5 03       		.uleb128 0x3
 1346 00b6 0E       		.uleb128 0xe
 1347 00b7 3A       		.uleb128 0x3a
 1348 00b8 0B       		.uleb128 0xb
 1349 00b9 3B       		.uleb128 0x3b
 1350 00ba 0B       		.uleb128 0xb
 1351 00bb 49       		.uleb128 0x49
 1352 00bc 13       		.uleb128 0x13
 1353 00bd 02       		.uleb128 0x2
 1354 00be 18       		.uleb128 0x18
 1355 00bf 00       		.byte	0
 1356 00c0 00       		.byte	0
 1357 00c1 0F       		.uleb128 0xf
 1358 00c2 0F       		.uleb128 0xf
 1359 00c3 00       		.byte	0
 1360 00c4 0B       		.uleb128 0xb
 1361 00c5 0B       		.uleb128 0xb
 1362 00c6 49       		.uleb128 0x49
 1363 00c7 13       		.uleb128 0x13
 1364 00c8 00       		.byte	0
 1365 00c9 00       		.byte	0
ARM GAS  C:\Users\GUILLA~1\AppData\Local\Temp\ccBt0odi.s 			page 30


 1366 00ca 10       		.uleb128 0x10
 1367 00cb 2E       		.uleb128 0x2e
 1368 00cc 00       		.byte	0
 1369 00cd 3F       		.uleb128 0x3f
 1370 00ce 19       		.uleb128 0x19
 1371 00cf 03       		.uleb128 0x3
 1372 00d0 0E       		.uleb128 0xe
 1373 00d1 3A       		.uleb128 0x3a
 1374 00d2 0B       		.uleb128 0xb
 1375 00d3 3B       		.uleb128 0x3b
 1376 00d4 0B       		.uleb128 0xb
 1377 00d5 27       		.uleb128 0x27
 1378 00d6 19       		.uleb128 0x19
 1379 00d7 11       		.uleb128 0x11
 1380 00d8 01       		.uleb128 0x1
 1381 00d9 12       		.uleb128 0x12
 1382 00da 06       		.uleb128 0x6
 1383 00db 40       		.uleb128 0x40
 1384 00dc 18       		.uleb128 0x18
 1385 00dd 9742     		.uleb128 0x2117
 1386 00df 19       		.uleb128 0x19
 1387 00e0 00       		.byte	0
 1388 00e1 00       		.byte	0
 1389 00e2 11       		.uleb128 0x11
 1390 00e3 2E       		.uleb128 0x2e
 1391 00e4 01       		.byte	0x1
 1392 00e5 3F       		.uleb128 0x3f
 1393 00e6 19       		.uleb128 0x19
 1394 00e7 03       		.uleb128 0x3
 1395 00e8 0E       		.uleb128 0xe
 1396 00e9 3A       		.uleb128 0x3a
 1397 00ea 0B       		.uleb128 0xb
 1398 00eb 3B       		.uleb128 0x3b
 1399 00ec 0B       		.uleb128 0xb
 1400 00ed 49       		.uleb128 0x49
 1401 00ee 13       		.uleb128 0x13
 1402 00ef 11       		.uleb128 0x11
 1403 00f0 01       		.uleb128 0x1
 1404 00f1 12       		.uleb128 0x12
 1405 00f2 06       		.uleb128 0x6
 1406 00f3 40       		.uleb128 0x40
 1407 00f4 18       		.uleb128 0x18
 1408 00f5 9642     		.uleb128 0x2116
 1409 00f7 19       		.uleb128 0x19
 1410 00f8 01       		.uleb128 0x1
 1411 00f9 13       		.uleb128 0x13
 1412 00fa 00       		.byte	0
 1413 00fb 00       		.byte	0
 1414 00fc 12       		.uleb128 0x12
 1415 00fd 0B       		.uleb128 0xb
 1416 00fe 01       		.byte	0x1
 1417 00ff 11       		.uleb128 0x11
 1418 0100 01       		.uleb128 0x1
 1419 0101 12       		.uleb128 0x12
 1420 0102 06       		.uleb128 0x6
 1421 0103 00       		.byte	0
 1422 0104 00       		.byte	0
ARM GAS  C:\Users\GUILLA~1\AppData\Local\Temp\ccBt0odi.s 			page 31


 1423 0105 13       		.uleb128 0x13
 1424 0106 34       		.uleb128 0x34
 1425 0107 00       		.byte	0
 1426 0108 03       		.uleb128 0x3
 1427 0109 0E       		.uleb128 0xe
 1428 010a 3A       		.uleb128 0x3a
 1429 010b 0B       		.uleb128 0xb
 1430 010c 3B       		.uleb128 0x3b
 1431 010d 05       		.uleb128 0x5
 1432 010e 49       		.uleb128 0x49
 1433 010f 13       		.uleb128 0x13
 1434 0110 02       		.uleb128 0x2
 1435 0111 18       		.uleb128 0x18
 1436 0112 00       		.byte	0
 1437 0113 00       		.byte	0
 1438 0114 14       		.uleb128 0x14
 1439 0115 2E       		.uleb128 0x2e
 1440 0116 00       		.byte	0
 1441 0117 3F       		.uleb128 0x3f
 1442 0118 19       		.uleb128 0x19
 1443 0119 03       		.uleb128 0x3
 1444 011a 0E       		.uleb128 0xe
 1445 011b 3A       		.uleb128 0x3a
 1446 011c 0B       		.uleb128 0xb
 1447 011d 3B       		.uleb128 0x3b
 1448 011e 05       		.uleb128 0x5
 1449 011f 11       		.uleb128 0x11
 1450 0120 01       		.uleb128 0x1
 1451 0121 12       		.uleb128 0x12
 1452 0122 06       		.uleb128 0x6
 1453 0123 40       		.uleb128 0x40
 1454 0124 18       		.uleb128 0x18
 1455 0125 9642     		.uleb128 0x2116
 1456 0127 19       		.uleb128 0x19
 1457 0128 00       		.byte	0
 1458 0129 00       		.byte	0
 1459 012a 15       		.uleb128 0x15
 1460 012b 34       		.uleb128 0x34
 1461 012c 00       		.byte	0
 1462 012d 03       		.uleb128 0x3
 1463 012e 0E       		.uleb128 0xe
 1464 012f 3A       		.uleb128 0x3a
 1465 0130 0B       		.uleb128 0xb
 1466 0131 3B       		.uleb128 0x3b
 1467 0132 05       		.uleb128 0x5
 1468 0133 49       		.uleb128 0x49
 1469 0134 13       		.uleb128 0x13
 1470 0135 3F       		.uleb128 0x3f
 1471 0136 19       		.uleb128 0x19
 1472 0137 3C       		.uleb128 0x3c
 1473 0138 19       		.uleb128 0x19
 1474 0139 00       		.byte	0
 1475 013a 00       		.byte	0
 1476 013b 16       		.uleb128 0x16
 1477 013c 34       		.uleb128 0x34
 1478 013d 00       		.byte	0
 1479 013e 03       		.uleb128 0x3
ARM GAS  C:\Users\GUILLA~1\AppData\Local\Temp\ccBt0odi.s 			page 32


 1480 013f 0E       		.uleb128 0xe
 1481 0140 3A       		.uleb128 0x3a
 1482 0141 0B       		.uleb128 0xb
 1483 0142 3B       		.uleb128 0x3b
 1484 0143 0B       		.uleb128 0xb
 1485 0144 49       		.uleb128 0x49
 1486 0145 13       		.uleb128 0x13
 1487 0146 3F       		.uleb128 0x3f
 1488 0147 19       		.uleb128 0x19
 1489 0148 02       		.uleb128 0x2
 1490 0149 18       		.uleb128 0x18
 1491 014a 00       		.byte	0
 1492 014b 00       		.byte	0
 1493 014c 17       		.uleb128 0x17
 1494 014d 34       		.uleb128 0x34
 1495 014e 00       		.byte	0
 1496 014f 03       		.uleb128 0x3
 1497 0150 0E       		.uleb128 0xe
 1498 0151 3A       		.uleb128 0x3a
 1499 0152 0B       		.uleb128 0xb
 1500 0153 3B       		.uleb128 0x3b
 1501 0154 0B       		.uleb128 0xb
 1502 0155 49       		.uleb128 0x49
 1503 0156 13       		.uleb128 0x13
 1504 0157 3F       		.uleb128 0x3f
 1505 0158 19       		.uleb128 0x19
 1506 0159 3C       		.uleb128 0x3c
 1507 015a 19       		.uleb128 0x19
 1508 015b 00       		.byte	0
 1509 015c 00       		.byte	0
 1510 015d 00       		.byte	0
 1511              		.section	.debug_aranges,"",%progbits
 1512 0000 34000000 		.4byte	0x34
 1513 0004 0200     		.2byte	0x2
 1514 0006 00000000 		.4byte	.Ldebug_info0
 1515 000a 04       		.byte	0x4
 1516 000b 00       		.byte	0
 1517 000c 0000     		.2byte	0
 1518 000e 0000     		.2byte	0
 1519 0010 00000000 		.4byte	.LFB56
 1520 0014 A6040000 		.4byte	.LFE56-.LFB56
 1521 0018 00000000 		.4byte	.LFB57
 1522 001c 20000000 		.4byte	.LFE57-.LFB57
 1523 0020 00000000 		.4byte	.LFB58
 1524 0024 60000000 		.4byte	.LFE58-.LFB58
 1525 0028 00000000 		.4byte	.LFB59
 1526 002c 24000000 		.4byte	.LFE59-.LFB59
 1527 0030 00000000 		.4byte	0
 1528 0034 00000000 		.4byte	0
 1529              		.section	.debug_ranges,"",%progbits
 1530              	.Ldebug_ranges0:
 1531 0000 00000000 		.4byte	.LFB56
 1532 0004 A6040000 		.4byte	.LFE56
 1533 0008 00000000 		.4byte	.LFB57
 1534 000c 20000000 		.4byte	.LFE57
 1535 0010 00000000 		.4byte	.LFB58
 1536 0014 60000000 		.4byte	.LFE58
ARM GAS  C:\Users\GUILLA~1\AppData\Local\Temp\ccBt0odi.s 			page 33


 1537 0018 00000000 		.4byte	.LFB59
 1538 001c 24000000 		.4byte	.LFE59
 1539 0020 00000000 		.4byte	0
 1540 0024 00000000 		.4byte	0
 1541              		.section	.debug_line,"",%progbits
 1542              	.Ldebug_line0:
 1543 0000 3B020000 		.section	.debug_str,"MS",%progbits,1
 1543      02008101 
 1543      00000201 
 1543      FB0E0D00 
 1543      01010101 
 1544              	.LASF23:
 1545 0000 43414E5F 		.ascii	"CAN_MSG\000"
 1545      4D534700 
 1546              	.LASF41:
 1547 0008 436F756E 		.ascii	"CounterCanInterruptHandler\000"
 1547      74657243 
 1547      616E496E 
 1547      74657272 
 1547      75707448 
 1548              	.LASF9:
 1549 0023 5F5F696E 		.ascii	"__int32_t\000"
 1549      7433325F 
 1549      7400
 1550              	.LASF30:
 1551 002d 6D657373 		.ascii	"messageToBeTreatedCount\000"
 1551      61676554 
 1551      6F426554 
 1551      72656174 
 1551      6564436F 
 1552              	.LASF36:
 1553 0045 474E5520 		.ascii	"GNU C 4.9.3 20150303 (release) [ARM/embedded-4_9-br"
 1553      4320342E 
 1553      392E3320 
 1553      32303135 
 1553      30333033 
 1554 0078 616E6368 		.ascii	"anch revision 221220] -mcpu=cortex-m3 -mthumb -g -O"
 1554      20726576 
 1554      6973696F 
 1554      6E203232 
 1554      31323230 
 1555 00ab 30202D66 		.ascii	"0 -ffunction-sections -ffat-lto-objects\000"
 1555      66756E63 
 1555      74696F6E 
 1555      2D736563 
 1555      74696F6E 
 1556              	.LASF20:
 1557 00d3 62797465 		.ascii	"byte\000"
 1557      00
 1558              	.LASF34:
 1559 00d8 72656164 		.ascii	"readCanMessage\000"
 1559      43616E4D 
 1559      65737361 
 1559      676500
 1560              	.LASF26:
 1561 00e7 6D736754 		.ascii	"msgToTreat\000"
 1561      6F547265 
ARM GAS  C:\Users\GUILLA~1\AppData\Local\Temp\ccBt0odi.s 			page 34


 1561      617400
 1562              	.LASF37:
 1563 00f2 2E5C6D61 		.ascii	".\\main.c\000"
 1563      696E2E63 
 1563      00
 1564              	.LASF14:
 1565 00fb 666C6F61 		.ascii	"float\000"
 1565      7400
 1566              	.LASF1:
 1567 0101 756E7369 		.ascii	"unsigned char\000"
 1567      676E6564 
 1567      20636861 
 1567      7200
 1568              	.LASF31:
 1569 010f 72656365 		.ascii	"receivedMsgs\000"
 1569      69766564 
 1569      4D736773 
 1569      00
 1570              	.LASF24:
 1571 011c 72696768 		.ascii	"rightMotorPosition\000"
 1571      744D6F74 
 1571      6F72506F 
 1571      73697469 
 1571      6F6E00
 1572              	.LASF17:
 1573 012f 72656738 		.ascii	"reg8\000"
 1573      00
 1574              	.LASF32:
 1575 0134 6D6F746F 		.ascii	"motorAngleLimits\000"
 1575      72416E67 
 1575      6C654C69 
 1575      6D697473 
 1575      00
 1576              	.LASF5:
 1577 0145 6C6F6E67 		.ascii	"long unsigned int\000"
 1577      20756E73 
 1577      69676E65 
 1577      6420696E 
 1577      7400
 1578              	.LASF3:
 1579 0157 73686F72 		.ascii	"short unsigned int\000"
 1579      7420756E 
 1579      7369676E 
 1579      65642069 
 1579      6E7400
 1580              	.LASF27:
 1581 016a 49544D5F 		.ascii	"ITM_RxBuffer\000"
 1581      52784275 
 1581      66666572 
 1581      00
 1582              	.LASF25:
 1583 0177 6C656674 		.ascii	"leftMotorPosition\000"
 1583      4D6F746F 
 1583      72506F73 
 1583      6974696F 
 1583      6E00
 1584              	.LASF15:
ARM GAS  C:\Users\GUILLA~1\AppData\Local\Temp\ccBt0odi.s 			page 35


 1585 0189 646F7562 		.ascii	"double\000"
 1585      6C6500
 1586              	.LASF12:
 1587 0190 75696E74 		.ascii	"uint16\000"
 1587      313600
 1588              	.LASF42:
 1589 0197 6D61696E 		.ascii	"main\000"
 1589      00
 1590              	.LASF39:
 1591 019c 74726561 		.ascii	"treatCanMessage\000"
 1591      7443616E 
 1591      4D657373 
 1591      61676500 
 1592              	.LASF13:
 1593 01ac 75696E74 		.ascii	"uint32\000"
 1593      333200
 1594              	.LASF22:
 1595 01b3 43414E5F 		.ascii	"CAN_ID\000"
 1595      494400
 1596              	.LASF8:
 1597 01ba 756E7369 		.ascii	"unsigned int\000"
 1597      676E6564 
 1597      20696E74 
 1597      00
 1598              	.LASF7:
 1599 01c7 6C6F6E67 		.ascii	"long long unsigned int\000"
 1599      206C6F6E 
 1599      6720756E 
 1599      7369676E 
 1599      65642069 
 1600              	.LASF28:
 1601 01de 6D736754 		.ascii	"msgToBeTreatedIndex\000"
 1601      6F426554 
 1601      72656174 
 1601      6564496E 
 1601      64657800 
 1602              	.LASF10:
 1603 01f2 696E7433 		.ascii	"int32_t\000"
 1603      325F7400 
 1604              	.LASF18:
 1605 01fa 73697A65 		.ascii	"sizetype\000"
 1605      74797065 
 1605      00
 1606              	.LASF29:
 1607 0203 6D736754 		.ascii	"msgToBeStoredIndex\000"
 1607      6F426553 
 1607      746F7265 
 1607      64496E64 
 1607      657800
 1608              	.LASF6:
 1609 0216 6C6F6E67 		.ascii	"long long int\000"
 1609      206C6F6E 
 1609      6720696E 
 1609      7400
 1610              	.LASF33:
 1611 0224 6D6F746F 		.ascii	"motorType\000"
 1611      72547970 
ARM GAS  C:\Users\GUILLA~1\AppData\Local\Temp\ccBt0odi.s 			page 36


 1611      6500
 1612              	.LASF16:
 1613 022e 63686172 		.ascii	"char\000"
 1613      00
 1614              	.LASF19:
 1615 0233 43414E5F 		.ascii	"CAN_1_DATA_BYTES_MSG\000"
 1615      315F4441 
 1615      54415F42 
 1615      59544553 
 1615      5F4D5347 
 1616              	.LASF40:
 1617 0248 63616E50 		.ascii	"canPacket\000"
 1617      61636B65 
 1617      7400
 1618              	.LASF43:
 1619 0252 696E6974 		.ascii	"init_can_module\000"
 1619      5F63616E 
 1619      5F6D6F64 
 1619      756C6500 
 1620              	.LASF21:
 1621 0262 6D736742 		.ascii	"msgBytes\000"
 1621      79746573 
 1621      00
 1622              	.LASF2:
 1623 026b 73686F72 		.ascii	"short int\000"
 1623      7420696E 
 1623      7400
 1624              	.LASF11:
 1625 0275 75696E74 		.ascii	"uint8\000"
 1625      3800
 1626              	.LASF38:
 1627 027b 433A5C55 		.ascii	"C:\\Users\\Guillaume\\Documents\\Projects\\Biobot\\"
 1627      73657273 
 1627      5C477569 
 1627      6C6C6175 
 1627      6D655C44 
 1628 02a8 47726970 		.ascii	"Gripper\\module-gripper-psoc.cydsn\000"
 1628      7065725C 
 1628      6D6F6475 
 1628      6C652D67 
 1628      72697070 
 1629              	.LASF4:
 1630 02ca 6C6F6E67 		.ascii	"long int\000"
 1630      20696E74 
 1630      00
 1631              	.LASF0:
 1632 02d3 7369676E 		.ascii	"signed char\000"
 1632      65642063 
 1632      68617200 
 1633              	.LASF35:
 1634 02df 74726561 		.ascii	"treatingAddress\000"
 1634      74696E67 
 1634      41646472 
 1634      65737300 
 1635              		.ident	"GCC: (GNU Tools for ARM Embedded Processors) 4.9.3 20150303 (release) [ARM/embedded-4_9-br
