ARM GAS  C:\Users\plod1602\AppData\Local\Temp\cc9ghWcO.s 			page 1


   1              		.syntax unified
   2              		.cpu cortex-m3
   3              		.fpu softvfp
   4              		.eabi_attribute 20, 1
   5              		.eabi_attribute 21, 1
   6              		.eabi_attribute 23, 3
   7              		.eabi_attribute 24, 1
   8              		.eabi_attribute 25, 1
   9              		.eabi_attribute 26, 1
  10              		.eabi_attribute 30, 6
  11              		.eabi_attribute 34, 1
  12              		.eabi_attribute 18, 4
  13              		.thumb
  14              		.file	"Z_Motor_Speed.c"
  15              		.text
  16              	.Ltext0:
  17              		.cfi_sections	.debug_frame
  18              		.global	Z_Motor_Speed_initVar
  19              		.bss
  20              		.type	Z_Motor_Speed_initVar, %object
  21              		.size	Z_Motor_Speed_initVar, 1
  22              	Z_Motor_Speed_initVar:
  23 0000 00       		.space	1
  24              		.section	.text.Z_Motor_Speed_Start,"ax",%progbits
  25              		.align	2
  26              		.global	Z_Motor_Speed_Start
  27              		.thumb
  28              		.thumb_func
  29              		.type	Z_Motor_Speed_Start, %function
  30              	Z_Motor_Speed_Start:
  31              	.LFB0:
  32              		.file 1 ".\\Generated_Source\\PSoC5\\Z_Motor_Speed.c"
   1:.\Generated_Source\PSoC5/Z_Motor_Speed.c **** /*******************************************************************************
   2:.\Generated_Source\PSoC5/Z_Motor_Speed.c **** * File Name: Z_Motor_Speed.c
   3:.\Generated_Source\PSoC5/Z_Motor_Speed.c **** * Version 3.30
   4:.\Generated_Source\PSoC5/Z_Motor_Speed.c **** *
   5:.\Generated_Source\PSoC5/Z_Motor_Speed.c **** * Description:
   6:.\Generated_Source\PSoC5/Z_Motor_Speed.c **** *  The PWM User Module consist of an 8 or 16-bit counter with two 8 or 16-bit
   7:.\Generated_Source\PSoC5/Z_Motor_Speed.c **** *  comparitors. Each instance of this user module is capable of generating
   8:.\Generated_Source\PSoC5/Z_Motor_Speed.c **** *  two PWM outputs with the same period. The pulse width is selectable between
   9:.\Generated_Source\PSoC5/Z_Motor_Speed.c **** *  1 and 255/65535. The period is selectable between 2 and 255/65536 clocks.
  10:.\Generated_Source\PSoC5/Z_Motor_Speed.c **** *  The compare value output may be configured to be active when the present
  11:.\Generated_Source\PSoC5/Z_Motor_Speed.c **** *  counter is less than or less than/equal to the compare value.
  12:.\Generated_Source\PSoC5/Z_Motor_Speed.c **** *  A terminal count output is also provided. It generates a pulse one clock
  13:.\Generated_Source\PSoC5/Z_Motor_Speed.c **** *  width wide when the counter is equal to zero.
  14:.\Generated_Source\PSoC5/Z_Motor_Speed.c **** *
  15:.\Generated_Source\PSoC5/Z_Motor_Speed.c **** * Note:
  16:.\Generated_Source\PSoC5/Z_Motor_Speed.c **** *
  17:.\Generated_Source\PSoC5/Z_Motor_Speed.c **** *******************************************************************************
  18:.\Generated_Source\PSoC5/Z_Motor_Speed.c **** * Copyright 2008-2014, Cypress Semiconductor Corporation.  All rights reserved.
  19:.\Generated_Source\PSoC5/Z_Motor_Speed.c **** * You may use this file only in accordance with the license, terms, conditions,
  20:.\Generated_Source\PSoC5/Z_Motor_Speed.c **** * disclaimers, and limitations in the end user license agreement accompanying
  21:.\Generated_Source\PSoC5/Z_Motor_Speed.c **** * the software package with which this file was provided.
  22:.\Generated_Source\PSoC5/Z_Motor_Speed.c **** ********************************************************************************/
  23:.\Generated_Source\PSoC5/Z_Motor_Speed.c **** 
  24:.\Generated_Source\PSoC5/Z_Motor_Speed.c **** #include "Z_Motor_Speed.h"
  25:.\Generated_Source\PSoC5/Z_Motor_Speed.c **** 
ARM GAS  C:\Users\plod1602\AppData\Local\Temp\cc9ghWcO.s 			page 2


  26:.\Generated_Source\PSoC5/Z_Motor_Speed.c **** /* Error message for removed <resource> through optimization */
  27:.\Generated_Source\PSoC5/Z_Motor_Speed.c **** #ifdef Z_Motor_Speed_PWMUDB_genblk1_ctrlreg__REMOVED
  28:.\Generated_Source\PSoC5/Z_Motor_Speed.c ****     #error PWM_v3_30 detected with a constant 0 for the enable or \
  29:.\Generated_Source\PSoC5/Z_Motor_Speed.c ****          constant 1 for reset. This will prevent the component from operating.
  30:.\Generated_Source\PSoC5/Z_Motor_Speed.c **** #endif /* Z_Motor_Speed_PWMUDB_genblk1_ctrlreg__REMOVED */
  31:.\Generated_Source\PSoC5/Z_Motor_Speed.c **** 
  32:.\Generated_Source\PSoC5/Z_Motor_Speed.c **** uint8 Z_Motor_Speed_initVar = 0u;
  33:.\Generated_Source\PSoC5/Z_Motor_Speed.c **** 
  34:.\Generated_Source\PSoC5/Z_Motor_Speed.c **** 
  35:.\Generated_Source\PSoC5/Z_Motor_Speed.c **** /*******************************************************************************
  36:.\Generated_Source\PSoC5/Z_Motor_Speed.c **** * Function Name: Z_Motor_Speed_Start
  37:.\Generated_Source\PSoC5/Z_Motor_Speed.c **** ********************************************************************************
  38:.\Generated_Source\PSoC5/Z_Motor_Speed.c **** *
  39:.\Generated_Source\PSoC5/Z_Motor_Speed.c **** * Summary:
  40:.\Generated_Source\PSoC5/Z_Motor_Speed.c **** *  The start function initializes the pwm with the default values, the
  41:.\Generated_Source\PSoC5/Z_Motor_Speed.c **** *  enables the counter to begin counting.  It does not enable interrupts,
  42:.\Generated_Source\PSoC5/Z_Motor_Speed.c **** *  the EnableInt command should be called if interrupt generation is required.
  43:.\Generated_Source\PSoC5/Z_Motor_Speed.c **** *
  44:.\Generated_Source\PSoC5/Z_Motor_Speed.c **** * Parameters:
  45:.\Generated_Source\PSoC5/Z_Motor_Speed.c **** *  None
  46:.\Generated_Source\PSoC5/Z_Motor_Speed.c **** *
  47:.\Generated_Source\PSoC5/Z_Motor_Speed.c **** * Return:
  48:.\Generated_Source\PSoC5/Z_Motor_Speed.c **** *  None
  49:.\Generated_Source\PSoC5/Z_Motor_Speed.c **** *
  50:.\Generated_Source\PSoC5/Z_Motor_Speed.c **** * Global variables:
  51:.\Generated_Source\PSoC5/Z_Motor_Speed.c **** *  Z_Motor_Speed_initVar: Is modified when this function is called for the
  52:.\Generated_Source\PSoC5/Z_Motor_Speed.c **** *   first time. Is used to ensure that initialization happens only once.
  53:.\Generated_Source\PSoC5/Z_Motor_Speed.c **** *
  54:.\Generated_Source\PSoC5/Z_Motor_Speed.c **** *******************************************************************************/
  55:.\Generated_Source\PSoC5/Z_Motor_Speed.c **** void Z_Motor_Speed_Start(void) 
  56:.\Generated_Source\PSoC5/Z_Motor_Speed.c **** {
  33              		.loc 1 56 0
  34              		.cfi_startproc
  35              		@ args = 0, pretend = 0, frame = 0
  36              		@ frame_needed = 1, uses_anonymous_args = 0
  37 0000 80B5     		push	{r7, lr}
  38              		.cfi_def_cfa_offset 8
  39              		.cfi_offset 7, -8
  40              		.cfi_offset 14, -4
  41 0002 00AF     		add	r7, sp, #0
  42              		.cfi_def_cfa_register 7
  57:.\Generated_Source\PSoC5/Z_Motor_Speed.c ****     /* If not Initialized then initialize all required hardware and software */
  58:.\Generated_Source\PSoC5/Z_Motor_Speed.c ****     if(Z_Motor_Speed_initVar == 0u)
  43              		.loc 1 58 0
  44 0004 054B     		ldr	r3, .L3
  45 0006 1B78     		ldrb	r3, [r3]	@ zero_extendqisi2
  46 0008 002B     		cmp	r3, #0
  47 000a 04D1     		bne	.L2
  59:.\Generated_Source\PSoC5/Z_Motor_Speed.c ****     {
  60:.\Generated_Source\PSoC5/Z_Motor_Speed.c ****         Z_Motor_Speed_Init();
  48              		.loc 1 60 0
  49 000c FFF7FEFF 		bl	Z_Motor_Speed_Init
  61:.\Generated_Source\PSoC5/Z_Motor_Speed.c ****         Z_Motor_Speed_initVar = 1u;
  50              		.loc 1 61 0
  51 0010 024B     		ldr	r3, .L3
  52 0012 0122     		movs	r2, #1
  53 0014 1A70     		strb	r2, [r3]
ARM GAS  C:\Users\plod1602\AppData\Local\Temp\cc9ghWcO.s 			page 3


  54              	.L2:
  62:.\Generated_Source\PSoC5/Z_Motor_Speed.c ****     }
  63:.\Generated_Source\PSoC5/Z_Motor_Speed.c ****     Z_Motor_Speed_Enable();
  55              		.loc 1 63 0
  56 0016 FFF7FEFF 		bl	Z_Motor_Speed_Enable
  64:.\Generated_Source\PSoC5/Z_Motor_Speed.c **** 
  65:.\Generated_Source\PSoC5/Z_Motor_Speed.c **** }
  57              		.loc 1 65 0
  58 001a 80BD     		pop	{r7, pc}
  59              	.L4:
  60              		.align	2
  61              	.L3:
  62 001c 00000000 		.word	Z_Motor_Speed_initVar
  63              		.cfi_endproc
  64              	.LFE0:
  65              		.size	Z_Motor_Speed_Start, .-Z_Motor_Speed_Start
  66              		.section	.text.Z_Motor_Speed_Init,"ax",%progbits
  67              		.align	2
  68              		.global	Z_Motor_Speed_Init
  69              		.thumb
  70              		.thumb_func
  71              		.type	Z_Motor_Speed_Init, %function
  72              	Z_Motor_Speed_Init:
  73              	.LFB1:
  66:.\Generated_Source\PSoC5/Z_Motor_Speed.c **** 
  67:.\Generated_Source\PSoC5/Z_Motor_Speed.c **** 
  68:.\Generated_Source\PSoC5/Z_Motor_Speed.c **** /*******************************************************************************
  69:.\Generated_Source\PSoC5/Z_Motor_Speed.c **** * Function Name: Z_Motor_Speed_Init
  70:.\Generated_Source\PSoC5/Z_Motor_Speed.c **** ********************************************************************************
  71:.\Generated_Source\PSoC5/Z_Motor_Speed.c **** *
  72:.\Generated_Source\PSoC5/Z_Motor_Speed.c **** * Summary:
  73:.\Generated_Source\PSoC5/Z_Motor_Speed.c **** *  Initialize component's parameters to the parameters set by user in the
  74:.\Generated_Source\PSoC5/Z_Motor_Speed.c **** *  customizer of the component placed onto schematic. Usually called in
  75:.\Generated_Source\PSoC5/Z_Motor_Speed.c **** *  Z_Motor_Speed_Start().
  76:.\Generated_Source\PSoC5/Z_Motor_Speed.c **** *
  77:.\Generated_Source\PSoC5/Z_Motor_Speed.c **** * Parameters:
  78:.\Generated_Source\PSoC5/Z_Motor_Speed.c **** *  None
  79:.\Generated_Source\PSoC5/Z_Motor_Speed.c **** *
  80:.\Generated_Source\PSoC5/Z_Motor_Speed.c **** * Return:
  81:.\Generated_Source\PSoC5/Z_Motor_Speed.c **** *  None
  82:.\Generated_Source\PSoC5/Z_Motor_Speed.c **** *
  83:.\Generated_Source\PSoC5/Z_Motor_Speed.c **** *******************************************************************************/
  84:.\Generated_Source\PSoC5/Z_Motor_Speed.c **** void Z_Motor_Speed_Init(void) 
  85:.\Generated_Source\PSoC5/Z_Motor_Speed.c **** {
  74              		.loc 1 85 0
  75              		.cfi_startproc
  76              		@ args = 0, pretend = 0, frame = 8
  77              		@ frame_needed = 1, uses_anonymous_args = 0
  78 0000 80B5     		push	{r7, lr}
  79              		.cfi_def_cfa_offset 8
  80              		.cfi_offset 7, -8
  81              		.cfi_offset 14, -4
  82 0002 82B0     		sub	sp, sp, #8
  83              		.cfi_def_cfa_offset 16
  84 0004 00AF     		add	r7, sp, #0
  85              		.cfi_def_cfa_register 7
  86:.\Generated_Source\PSoC5/Z_Motor_Speed.c ****     #if (Z_Motor_Speed_UsingFixedFunction || Z_Motor_Speed_UseControl)
ARM GAS  C:\Users\plod1602\AppData\Local\Temp\cc9ghWcO.s 			page 4


  87:.\Generated_Source\PSoC5/Z_Motor_Speed.c ****         uint8 ctrl;
  88:.\Generated_Source\PSoC5/Z_Motor_Speed.c ****     #endif /* (Z_Motor_Speed_UsingFixedFunction || Z_Motor_Speed_UseControl) */
  89:.\Generated_Source\PSoC5/Z_Motor_Speed.c **** 
  90:.\Generated_Source\PSoC5/Z_Motor_Speed.c ****     #if(!Z_Motor_Speed_UsingFixedFunction)
  91:.\Generated_Source\PSoC5/Z_Motor_Speed.c ****         #if(Z_Motor_Speed_UseStatus)
  92:.\Generated_Source\PSoC5/Z_Motor_Speed.c ****             /* Interrupt State Backup for Critical Region*/
  93:.\Generated_Source\PSoC5/Z_Motor_Speed.c ****             uint8 Z_Motor_Speed_interruptState;
  94:.\Generated_Source\PSoC5/Z_Motor_Speed.c ****         #endif /* (Z_Motor_Speed_UseStatus) */
  95:.\Generated_Source\PSoC5/Z_Motor_Speed.c ****     #endif /* (!Z_Motor_Speed_UsingFixedFunction) */
  96:.\Generated_Source\PSoC5/Z_Motor_Speed.c **** 
  97:.\Generated_Source\PSoC5/Z_Motor_Speed.c ****     #if (Z_Motor_Speed_UsingFixedFunction)
  98:.\Generated_Source\PSoC5/Z_Motor_Speed.c ****         /* You are allowed to write the compare value (FF only) */
  99:.\Generated_Source\PSoC5/Z_Motor_Speed.c ****         Z_Motor_Speed_CONTROL |= Z_Motor_Speed_CFG0_MODE;
 100:.\Generated_Source\PSoC5/Z_Motor_Speed.c ****         #if (Z_Motor_Speed_DeadBand2_4)
 101:.\Generated_Source\PSoC5/Z_Motor_Speed.c ****             Z_Motor_Speed_CONTROL |= Z_Motor_Speed_CFG0_DB;
 102:.\Generated_Source\PSoC5/Z_Motor_Speed.c ****         #endif /* (Z_Motor_Speed_DeadBand2_4) */
 103:.\Generated_Source\PSoC5/Z_Motor_Speed.c **** 
 104:.\Generated_Source\PSoC5/Z_Motor_Speed.c ****         ctrl = Z_Motor_Speed_CONTROL3 & ((uint8 )(~Z_Motor_Speed_CTRL_CMPMODE1_MASK));
 105:.\Generated_Source\PSoC5/Z_Motor_Speed.c ****         Z_Motor_Speed_CONTROL3 = ctrl | Z_Motor_Speed_DEFAULT_COMPARE1_MODE;
 106:.\Generated_Source\PSoC5/Z_Motor_Speed.c **** 
 107:.\Generated_Source\PSoC5/Z_Motor_Speed.c ****          /* Clear and Set SYNCTC and SYNCCMP bits of RT1 register */
 108:.\Generated_Source\PSoC5/Z_Motor_Speed.c ****         Z_Motor_Speed_RT1 &= ((uint8)(~Z_Motor_Speed_RT1_MASK));
 109:.\Generated_Source\PSoC5/Z_Motor_Speed.c ****         Z_Motor_Speed_RT1 |= Z_Motor_Speed_SYNC;
 110:.\Generated_Source\PSoC5/Z_Motor_Speed.c **** 
 111:.\Generated_Source\PSoC5/Z_Motor_Speed.c ****         /*Enable DSI Sync all all inputs of the PWM*/
 112:.\Generated_Source\PSoC5/Z_Motor_Speed.c ****         Z_Motor_Speed_RT1 &= ((uint8)(~Z_Motor_Speed_SYNCDSI_MASK));
 113:.\Generated_Source\PSoC5/Z_Motor_Speed.c ****         Z_Motor_Speed_RT1 |= Z_Motor_Speed_SYNCDSI_EN;
 114:.\Generated_Source\PSoC5/Z_Motor_Speed.c **** 
 115:.\Generated_Source\PSoC5/Z_Motor_Speed.c ****     #elif (Z_Motor_Speed_UseControl)
 116:.\Generated_Source\PSoC5/Z_Motor_Speed.c ****         /* Set the default compare mode defined in the parameter */
 117:.\Generated_Source\PSoC5/Z_Motor_Speed.c ****         ctrl = Z_Motor_Speed_CONTROL & ((uint8)(~Z_Motor_Speed_CTRL_CMPMODE2_MASK)) &
  86              		.loc 1 117 0
  87 0006 154B     		ldr	r3, .L6
  88 0008 1B78     		ldrb	r3, [r3]
  89 000a DBB2     		uxtb	r3, r3
  90 000c 23F03F03 		bic	r3, r3, #63
  91 0010 FB71     		strb	r3, [r7, #7]
 118:.\Generated_Source\PSoC5/Z_Motor_Speed.c ****                 ((uint8)(~Z_Motor_Speed_CTRL_CMPMODE1_MASK));
 119:.\Generated_Source\PSoC5/Z_Motor_Speed.c ****         Z_Motor_Speed_CONTROL = ctrl | Z_Motor_Speed_DEFAULT_COMPARE2_MODE |
  92              		.loc 1 119 0
  93 0012 124A     		ldr	r2, .L6
  94 0014 FB79     		ldrb	r3, [r7, #7]
  95 0016 43F00D03 		orr	r3, r3, #13
  96 001a DBB2     		uxtb	r3, r3
  97 001c 1370     		strb	r3, [r2]
 120:.\Generated_Source\PSoC5/Z_Motor_Speed.c ****                                    Z_Motor_Speed_DEFAULT_COMPARE1_MODE;
 121:.\Generated_Source\PSoC5/Z_Motor_Speed.c ****     #endif /* (Z_Motor_Speed_UsingFixedFunction) */
 122:.\Generated_Source\PSoC5/Z_Motor_Speed.c **** 
 123:.\Generated_Source\PSoC5/Z_Motor_Speed.c ****     #if (!Z_Motor_Speed_UsingFixedFunction)
 124:.\Generated_Source\PSoC5/Z_Motor_Speed.c ****         #if (Z_Motor_Speed_Resolution == 8)
 125:.\Generated_Source\PSoC5/Z_Motor_Speed.c ****             /* Set FIFO 0 to 1 byte register for period*/
 126:.\Generated_Source\PSoC5/Z_Motor_Speed.c ****             Z_Motor_Speed_AUX_CONTROLDP0 |= (Z_Motor_Speed_AUX_CTRL_FIFO0_CLR);
 127:.\Generated_Source\PSoC5/Z_Motor_Speed.c ****         #else /* (Z_Motor_Speed_Resolution == 16)*/
 128:.\Generated_Source\PSoC5/Z_Motor_Speed.c ****             /* Set FIFO 0 to 1 byte register for period */
 129:.\Generated_Source\PSoC5/Z_Motor_Speed.c ****             Z_Motor_Speed_AUX_CONTROLDP0 |= (Z_Motor_Speed_AUX_CTRL_FIFO0_CLR);
  98              		.loc 1 129 0
  99 001e 104A     		ldr	r2, .L6+4
ARM GAS  C:\Users\plod1602\AppData\Local\Temp\cc9ghWcO.s 			page 5


 100 0020 0F4B     		ldr	r3, .L6+4
 101 0022 1B78     		ldrb	r3, [r3]
 102 0024 DBB2     		uxtb	r3, r3
 103 0026 43F00103 		orr	r3, r3, #1
 104 002a DBB2     		uxtb	r3, r3
 105 002c 1370     		strb	r3, [r2]
 130:.\Generated_Source\PSoC5/Z_Motor_Speed.c ****             Z_Motor_Speed_AUX_CONTROLDP1 |= (Z_Motor_Speed_AUX_CTRL_FIFO0_CLR);
 106              		.loc 1 130 0
 107 002e 0D4A     		ldr	r2, .L6+8
 108 0030 0C4B     		ldr	r3, .L6+8
 109 0032 1B78     		ldrb	r3, [r3]
 110 0034 DBB2     		uxtb	r3, r3
 111 0036 43F00103 		orr	r3, r3, #1
 112 003a DBB2     		uxtb	r3, r3
 113 003c 1370     		strb	r3, [r2]
 131:.\Generated_Source\PSoC5/Z_Motor_Speed.c ****         #endif /* (Z_Motor_Speed_Resolution == 8) */
 132:.\Generated_Source\PSoC5/Z_Motor_Speed.c **** 
 133:.\Generated_Source\PSoC5/Z_Motor_Speed.c ****         Z_Motor_Speed_WriteCounter(Z_Motor_Speed_INIT_PERIOD_VALUE);
 114              		.loc 1 133 0
 115 003e 40F2DC50 		movw	r0, #1500
 116 0042 FFF7FEFF 		bl	Z_Motor_Speed_WriteCounter
 134:.\Generated_Source\PSoC5/Z_Motor_Speed.c ****     #endif /* (!Z_Motor_Speed_UsingFixedFunction) */
 135:.\Generated_Source\PSoC5/Z_Motor_Speed.c **** 
 136:.\Generated_Source\PSoC5/Z_Motor_Speed.c ****     Z_Motor_Speed_WritePeriod(Z_Motor_Speed_INIT_PERIOD_VALUE);
 117              		.loc 1 136 0
 118 0046 40F2DC50 		movw	r0, #1500
 119 004a FFF7FEFF 		bl	Z_Motor_Speed_WritePeriod
 137:.\Generated_Source\PSoC5/Z_Motor_Speed.c **** 
 138:.\Generated_Source\PSoC5/Z_Motor_Speed.c ****         #if (Z_Motor_Speed_UseOneCompareMode)
 139:.\Generated_Source\PSoC5/Z_Motor_Speed.c ****             Z_Motor_Speed_WriteCompare(Z_Motor_Speed_INIT_COMPARE_VALUE1);
 120              		.loc 1 139 0
 121 004e 40F2EE20 		movw	r0, #750
 122 0052 FFF7FEFF 		bl	Z_Motor_Speed_WriteCompare
 140:.\Generated_Source\PSoC5/Z_Motor_Speed.c ****         #else
 141:.\Generated_Source\PSoC5/Z_Motor_Speed.c ****             Z_Motor_Speed_WriteCompare1(Z_Motor_Speed_INIT_COMPARE_VALUE1);
 142:.\Generated_Source\PSoC5/Z_Motor_Speed.c ****             Z_Motor_Speed_WriteCompare2(Z_Motor_Speed_INIT_COMPARE_VALUE2);
 143:.\Generated_Source\PSoC5/Z_Motor_Speed.c ****         #endif /* (Z_Motor_Speed_UseOneCompareMode) */
 144:.\Generated_Source\PSoC5/Z_Motor_Speed.c **** 
 145:.\Generated_Source\PSoC5/Z_Motor_Speed.c ****         #if (Z_Motor_Speed_KillModeMinTime)
 146:.\Generated_Source\PSoC5/Z_Motor_Speed.c ****             Z_Motor_Speed_WriteKillTime(Z_Motor_Speed_MinimumKillTime);
 147:.\Generated_Source\PSoC5/Z_Motor_Speed.c ****         #endif /* (Z_Motor_Speed_KillModeMinTime) */
 148:.\Generated_Source\PSoC5/Z_Motor_Speed.c **** 
 149:.\Generated_Source\PSoC5/Z_Motor_Speed.c ****         #if (Z_Motor_Speed_DeadBandUsed)
 150:.\Generated_Source\PSoC5/Z_Motor_Speed.c ****             Z_Motor_Speed_WriteDeadTime(Z_Motor_Speed_INIT_DEAD_TIME);
 151:.\Generated_Source\PSoC5/Z_Motor_Speed.c ****         #endif /* (Z_Motor_Speed_DeadBandUsed) */
 152:.\Generated_Source\PSoC5/Z_Motor_Speed.c **** 
 153:.\Generated_Source\PSoC5/Z_Motor_Speed.c ****     #if (Z_Motor_Speed_UseStatus || Z_Motor_Speed_UsingFixedFunction)
 154:.\Generated_Source\PSoC5/Z_Motor_Speed.c ****         Z_Motor_Speed_SetInterruptMode(Z_Motor_Speed_INIT_INTERRUPTS_MODE);
 155:.\Generated_Source\PSoC5/Z_Motor_Speed.c ****     #endif /* (Z_Motor_Speed_UseStatus || Z_Motor_Speed_UsingFixedFunction) */
 156:.\Generated_Source\PSoC5/Z_Motor_Speed.c **** 
 157:.\Generated_Source\PSoC5/Z_Motor_Speed.c ****     #if (Z_Motor_Speed_UsingFixedFunction)
 158:.\Generated_Source\PSoC5/Z_Motor_Speed.c ****         /* Globally Enable the Fixed Function Block chosen */
 159:.\Generated_Source\PSoC5/Z_Motor_Speed.c ****         Z_Motor_Speed_GLOBAL_ENABLE |= Z_Motor_Speed_BLOCK_EN_MASK;
 160:.\Generated_Source\PSoC5/Z_Motor_Speed.c ****         /* Set the Interrupt source to come from the status register */
 161:.\Generated_Source\PSoC5/Z_Motor_Speed.c ****         Z_Motor_Speed_CONTROL2 |= Z_Motor_Speed_CTRL2_IRQ_SEL;
 162:.\Generated_Source\PSoC5/Z_Motor_Speed.c ****     #else
 163:.\Generated_Source\PSoC5/Z_Motor_Speed.c ****         #if(Z_Motor_Speed_UseStatus)
ARM GAS  C:\Users\plod1602\AppData\Local\Temp\cc9ghWcO.s 			page 6


 164:.\Generated_Source\PSoC5/Z_Motor_Speed.c **** 
 165:.\Generated_Source\PSoC5/Z_Motor_Speed.c ****             /* CyEnterCriticalRegion and CyExitCriticalRegion are used to mark following region cri
 166:.\Generated_Source\PSoC5/Z_Motor_Speed.c ****             /* Enter Critical Region*/
 167:.\Generated_Source\PSoC5/Z_Motor_Speed.c ****             Z_Motor_Speed_interruptState = CyEnterCriticalSection();
 168:.\Generated_Source\PSoC5/Z_Motor_Speed.c ****             /* Use the interrupt output of the status register for IRQ output */
 169:.\Generated_Source\PSoC5/Z_Motor_Speed.c ****             Z_Motor_Speed_STATUS_AUX_CTRL |= Z_Motor_Speed_STATUS_ACTL_INT_EN_MASK;
 170:.\Generated_Source\PSoC5/Z_Motor_Speed.c **** 
 171:.\Generated_Source\PSoC5/Z_Motor_Speed.c ****              /* Exit Critical Region*/
 172:.\Generated_Source\PSoC5/Z_Motor_Speed.c ****             CyExitCriticalSection(Z_Motor_Speed_interruptState);
 173:.\Generated_Source\PSoC5/Z_Motor_Speed.c **** 
 174:.\Generated_Source\PSoC5/Z_Motor_Speed.c ****             /* Clear the FIFO to enable the Z_Motor_Speed_STATUS_FIFOFULL
 175:.\Generated_Source\PSoC5/Z_Motor_Speed.c ****                    bit to be set on FIFO full. */
 176:.\Generated_Source\PSoC5/Z_Motor_Speed.c ****             Z_Motor_Speed_ClearFIFO();
 177:.\Generated_Source\PSoC5/Z_Motor_Speed.c ****         #endif /* (Z_Motor_Speed_UseStatus) */
 178:.\Generated_Source\PSoC5/Z_Motor_Speed.c ****     #endif /* (Z_Motor_Speed_UsingFixedFunction) */
 179:.\Generated_Source\PSoC5/Z_Motor_Speed.c **** }
 123              		.loc 1 179 0
 124 0056 0837     		adds	r7, r7, #8
 125              		.cfi_def_cfa_offset 8
 126 0058 BD46     		mov	sp, r7
 127              		.cfi_def_cfa_register 13
 128              		@ sp needed
 129 005a 80BD     		pop	{r7, pc}
 130              	.L7:
 131              		.align	2
 132              	.L6:
 133 005c 77640040 		.word	1073767543
 134 0060 96640040 		.word	1073767574
 135 0064 97640040 		.word	1073767575
 136              		.cfi_endproc
 137              	.LFE1:
 138              		.size	Z_Motor_Speed_Init, .-Z_Motor_Speed_Init
 139              		.section	.text.Z_Motor_Speed_Enable,"ax",%progbits
 140              		.align	2
 141              		.global	Z_Motor_Speed_Enable
 142              		.thumb
 143              		.thumb_func
 144              		.type	Z_Motor_Speed_Enable, %function
 145              	Z_Motor_Speed_Enable:
 146              	.LFB2:
 180:.\Generated_Source\PSoC5/Z_Motor_Speed.c **** 
 181:.\Generated_Source\PSoC5/Z_Motor_Speed.c **** 
 182:.\Generated_Source\PSoC5/Z_Motor_Speed.c **** /*******************************************************************************
 183:.\Generated_Source\PSoC5/Z_Motor_Speed.c **** * Function Name: Z_Motor_Speed_Enable
 184:.\Generated_Source\PSoC5/Z_Motor_Speed.c **** ********************************************************************************
 185:.\Generated_Source\PSoC5/Z_Motor_Speed.c **** *
 186:.\Generated_Source\PSoC5/Z_Motor_Speed.c **** * Summary:
 187:.\Generated_Source\PSoC5/Z_Motor_Speed.c **** *  Enables the PWM block operation
 188:.\Generated_Source\PSoC5/Z_Motor_Speed.c **** *
 189:.\Generated_Source\PSoC5/Z_Motor_Speed.c **** * Parameters:
 190:.\Generated_Source\PSoC5/Z_Motor_Speed.c **** *  None
 191:.\Generated_Source\PSoC5/Z_Motor_Speed.c **** *
 192:.\Generated_Source\PSoC5/Z_Motor_Speed.c **** * Return:
 193:.\Generated_Source\PSoC5/Z_Motor_Speed.c **** *  None
 194:.\Generated_Source\PSoC5/Z_Motor_Speed.c **** *
 195:.\Generated_Source\PSoC5/Z_Motor_Speed.c **** * Side Effects:
 196:.\Generated_Source\PSoC5/Z_Motor_Speed.c **** *  This works only if software enable mode is chosen
ARM GAS  C:\Users\plod1602\AppData\Local\Temp\cc9ghWcO.s 			page 7


 197:.\Generated_Source\PSoC5/Z_Motor_Speed.c **** *
 198:.\Generated_Source\PSoC5/Z_Motor_Speed.c **** *******************************************************************************/
 199:.\Generated_Source\PSoC5/Z_Motor_Speed.c **** void Z_Motor_Speed_Enable(void) 
 200:.\Generated_Source\PSoC5/Z_Motor_Speed.c **** {
 147              		.loc 1 200 0
 148              		.cfi_startproc
 149              		@ args = 0, pretend = 0, frame = 0
 150              		@ frame_needed = 1, uses_anonymous_args = 0
 151              		@ link register save eliminated.
 152 0000 80B4     		push	{r7}
 153              		.cfi_def_cfa_offset 4
 154              		.cfi_offset 7, -4
 155 0002 00AF     		add	r7, sp, #0
 156              		.cfi_def_cfa_register 7
 201:.\Generated_Source\PSoC5/Z_Motor_Speed.c ****     /* Globally Enable the Fixed Function Block chosen */
 202:.\Generated_Source\PSoC5/Z_Motor_Speed.c ****     #if (Z_Motor_Speed_UsingFixedFunction)
 203:.\Generated_Source\PSoC5/Z_Motor_Speed.c ****         Z_Motor_Speed_GLOBAL_ENABLE |= Z_Motor_Speed_BLOCK_EN_MASK;
 204:.\Generated_Source\PSoC5/Z_Motor_Speed.c ****         Z_Motor_Speed_GLOBAL_STBY_ENABLE |= Z_Motor_Speed_BLOCK_STBY_EN_MASK;
 205:.\Generated_Source\PSoC5/Z_Motor_Speed.c ****     #endif /* (Z_Motor_Speed_UsingFixedFunction) */
 206:.\Generated_Source\PSoC5/Z_Motor_Speed.c **** 
 207:.\Generated_Source\PSoC5/Z_Motor_Speed.c ****     /* Enable the PWM from the control register  */
 208:.\Generated_Source\PSoC5/Z_Motor_Speed.c ****     #if (Z_Motor_Speed_UseControl || Z_Motor_Speed_UsingFixedFunction)
 209:.\Generated_Source\PSoC5/Z_Motor_Speed.c ****         Z_Motor_Speed_CONTROL |= Z_Motor_Speed_CTRL_ENABLE;
 157              		.loc 1 209 0
 158 0004 054A     		ldr	r2, .L9
 159 0006 054B     		ldr	r3, .L9
 160 0008 1B78     		ldrb	r3, [r3]
 161 000a DBB2     		uxtb	r3, r3
 162 000c 63F07F03 		orn	r3, r3, #127
 163 0010 DBB2     		uxtb	r3, r3
 164 0012 1370     		strb	r3, [r2]
 210:.\Generated_Source\PSoC5/Z_Motor_Speed.c ****     #endif /* (Z_Motor_Speed_UseControl || Z_Motor_Speed_UsingFixedFunction) */
 211:.\Generated_Source\PSoC5/Z_Motor_Speed.c **** }
 165              		.loc 1 211 0
 166 0014 BD46     		mov	sp, r7
 167              		.cfi_def_cfa_register 13
 168              		@ sp needed
 169 0016 5DF8047B 		ldr	r7, [sp], #4
 170              		.cfi_restore 7
 171              		.cfi_def_cfa_offset 0
 172 001a 7047     		bx	lr
 173              	.L10:
 174              		.align	2
 175              	.L9:
 176 001c 77640040 		.word	1073767543
 177              		.cfi_endproc
 178              	.LFE2:
 179              		.size	Z_Motor_Speed_Enable, .-Z_Motor_Speed_Enable
 180              		.section	.text.Z_Motor_Speed_Stop,"ax",%progbits
 181              		.align	2
 182              		.global	Z_Motor_Speed_Stop
 183              		.thumb
 184              		.thumb_func
 185              		.type	Z_Motor_Speed_Stop, %function
 186              	Z_Motor_Speed_Stop:
 187              	.LFB3:
 212:.\Generated_Source\PSoC5/Z_Motor_Speed.c **** 
ARM GAS  C:\Users\plod1602\AppData\Local\Temp\cc9ghWcO.s 			page 8


 213:.\Generated_Source\PSoC5/Z_Motor_Speed.c **** 
 214:.\Generated_Source\PSoC5/Z_Motor_Speed.c **** /*******************************************************************************
 215:.\Generated_Source\PSoC5/Z_Motor_Speed.c **** * Function Name: Z_Motor_Speed_Stop
 216:.\Generated_Source\PSoC5/Z_Motor_Speed.c **** ********************************************************************************
 217:.\Generated_Source\PSoC5/Z_Motor_Speed.c **** *
 218:.\Generated_Source\PSoC5/Z_Motor_Speed.c **** * Summary:
 219:.\Generated_Source\PSoC5/Z_Motor_Speed.c **** *  The stop function halts the PWM, but does not change any modes or disable
 220:.\Generated_Source\PSoC5/Z_Motor_Speed.c **** *  interrupts.
 221:.\Generated_Source\PSoC5/Z_Motor_Speed.c **** *
 222:.\Generated_Source\PSoC5/Z_Motor_Speed.c **** * Parameters:
 223:.\Generated_Source\PSoC5/Z_Motor_Speed.c **** *  None
 224:.\Generated_Source\PSoC5/Z_Motor_Speed.c **** *
 225:.\Generated_Source\PSoC5/Z_Motor_Speed.c **** * Return:
 226:.\Generated_Source\PSoC5/Z_Motor_Speed.c **** *  None
 227:.\Generated_Source\PSoC5/Z_Motor_Speed.c **** *
 228:.\Generated_Source\PSoC5/Z_Motor_Speed.c **** * Side Effects:
 229:.\Generated_Source\PSoC5/Z_Motor_Speed.c **** *  If the Enable mode is set to Hardware only then this function
 230:.\Generated_Source\PSoC5/Z_Motor_Speed.c **** *  has no effect on the operation of the PWM
 231:.\Generated_Source\PSoC5/Z_Motor_Speed.c **** *
 232:.\Generated_Source\PSoC5/Z_Motor_Speed.c **** *******************************************************************************/
 233:.\Generated_Source\PSoC5/Z_Motor_Speed.c **** void Z_Motor_Speed_Stop(void) 
 234:.\Generated_Source\PSoC5/Z_Motor_Speed.c **** {
 188              		.loc 1 234 0
 189              		.cfi_startproc
 190              		@ args = 0, pretend = 0, frame = 0
 191              		@ frame_needed = 1, uses_anonymous_args = 0
 192              		@ link register save eliminated.
 193 0000 80B4     		push	{r7}
 194              		.cfi_def_cfa_offset 4
 195              		.cfi_offset 7, -4
 196 0002 00AF     		add	r7, sp, #0
 197              		.cfi_def_cfa_register 7
 235:.\Generated_Source\PSoC5/Z_Motor_Speed.c ****     #if (Z_Motor_Speed_UseControl || Z_Motor_Speed_UsingFixedFunction)
 236:.\Generated_Source\PSoC5/Z_Motor_Speed.c ****         Z_Motor_Speed_CONTROL &= ((uint8)(~Z_Motor_Speed_CTRL_ENABLE));
 198              		.loc 1 236 0
 199 0004 054A     		ldr	r2, .L12
 200 0006 054B     		ldr	r3, .L12
 201 0008 1B78     		ldrb	r3, [r3]
 202 000a DBB2     		uxtb	r3, r3
 203 000c 03F07F03 		and	r3, r3, #127
 204 0010 DBB2     		uxtb	r3, r3
 205 0012 1370     		strb	r3, [r2]
 237:.\Generated_Source\PSoC5/Z_Motor_Speed.c ****     #endif /* (Z_Motor_Speed_UseControl || Z_Motor_Speed_UsingFixedFunction) */
 238:.\Generated_Source\PSoC5/Z_Motor_Speed.c **** 
 239:.\Generated_Source\PSoC5/Z_Motor_Speed.c ****     /* Globally disable the Fixed Function Block chosen */
 240:.\Generated_Source\PSoC5/Z_Motor_Speed.c ****     #if (Z_Motor_Speed_UsingFixedFunction)
 241:.\Generated_Source\PSoC5/Z_Motor_Speed.c ****         Z_Motor_Speed_GLOBAL_ENABLE &= ((uint8)(~Z_Motor_Speed_BLOCK_EN_MASK));
 242:.\Generated_Source\PSoC5/Z_Motor_Speed.c ****         Z_Motor_Speed_GLOBAL_STBY_ENABLE &= ((uint8)(~Z_Motor_Speed_BLOCK_STBY_EN_MASK));
 243:.\Generated_Source\PSoC5/Z_Motor_Speed.c ****     #endif /* (Z_Motor_Speed_UsingFixedFunction) */
 244:.\Generated_Source\PSoC5/Z_Motor_Speed.c **** }
 206              		.loc 1 244 0
 207 0014 BD46     		mov	sp, r7
 208              		.cfi_def_cfa_register 13
 209              		@ sp needed
 210 0016 5DF8047B 		ldr	r7, [sp], #4
 211              		.cfi_restore 7
 212              		.cfi_def_cfa_offset 0
ARM GAS  C:\Users\plod1602\AppData\Local\Temp\cc9ghWcO.s 			page 9


 213 001a 7047     		bx	lr
 214              	.L13:
 215              		.align	2
 216              	.L12:
 217 001c 77640040 		.word	1073767543
 218              		.cfi_endproc
 219              	.LFE3:
 220              		.size	Z_Motor_Speed_Stop, .-Z_Motor_Speed_Stop
 221              		.section	.text.Z_Motor_Speed_SetCompareMode,"ax",%progbits
 222              		.align	2
 223              		.global	Z_Motor_Speed_SetCompareMode
 224              		.thumb
 225              		.thumb_func
 226              		.type	Z_Motor_Speed_SetCompareMode, %function
 227              	Z_Motor_Speed_SetCompareMode:
 228              	.LFB4:
 245:.\Generated_Source\PSoC5/Z_Motor_Speed.c **** 
 246:.\Generated_Source\PSoC5/Z_Motor_Speed.c **** #if (Z_Motor_Speed_UseOneCompareMode)
 247:.\Generated_Source\PSoC5/Z_Motor_Speed.c ****     #if (Z_Motor_Speed_CompareMode1SW)
 248:.\Generated_Source\PSoC5/Z_Motor_Speed.c **** 
 249:.\Generated_Source\PSoC5/Z_Motor_Speed.c **** 
 250:.\Generated_Source\PSoC5/Z_Motor_Speed.c ****         /*******************************************************************************
 251:.\Generated_Source\PSoC5/Z_Motor_Speed.c ****         * Function Name: Z_Motor_Speed_SetCompareMode
 252:.\Generated_Source\PSoC5/Z_Motor_Speed.c ****         ********************************************************************************
 253:.\Generated_Source\PSoC5/Z_Motor_Speed.c ****         *
 254:.\Generated_Source\PSoC5/Z_Motor_Speed.c ****         * Summary:
 255:.\Generated_Source\PSoC5/Z_Motor_Speed.c ****         *  This function writes the Compare Mode for the pwm output when in Dither mode,
 256:.\Generated_Source\PSoC5/Z_Motor_Speed.c ****         *  Center Align Mode or One Output Mode.
 257:.\Generated_Source\PSoC5/Z_Motor_Speed.c ****         *
 258:.\Generated_Source\PSoC5/Z_Motor_Speed.c ****         * Parameters:
 259:.\Generated_Source\PSoC5/Z_Motor_Speed.c ****         *  comparemode:  The new compare mode for the PWM output. Use the compare types
 260:.\Generated_Source\PSoC5/Z_Motor_Speed.c ****         *                defined in the H file as input arguments.
 261:.\Generated_Source\PSoC5/Z_Motor_Speed.c ****         *
 262:.\Generated_Source\PSoC5/Z_Motor_Speed.c ****         * Return:
 263:.\Generated_Source\PSoC5/Z_Motor_Speed.c ****         *  None
 264:.\Generated_Source\PSoC5/Z_Motor_Speed.c ****         *
 265:.\Generated_Source\PSoC5/Z_Motor_Speed.c ****         *******************************************************************************/
 266:.\Generated_Source\PSoC5/Z_Motor_Speed.c ****         void Z_Motor_Speed_SetCompareMode(uint8 comparemode) 
 267:.\Generated_Source\PSoC5/Z_Motor_Speed.c ****         {
 229              		.loc 1 267 0
 230              		.cfi_startproc
 231              		@ args = 0, pretend = 0, frame = 16
 232              		@ frame_needed = 1, uses_anonymous_args = 0
 233              		@ link register save eliminated.
 234 0000 80B4     		push	{r7}
 235              		.cfi_def_cfa_offset 4
 236              		.cfi_offset 7, -4
 237 0002 85B0     		sub	sp, sp, #20
 238              		.cfi_def_cfa_offset 24
 239 0004 00AF     		add	r7, sp, #0
 240              		.cfi_def_cfa_register 7
 241 0006 0346     		mov	r3, r0
 242 0008 FB71     		strb	r3, [r7, #7]
 268:.\Generated_Source\PSoC5/Z_Motor_Speed.c ****             #if(Z_Motor_Speed_UsingFixedFunction)
 269:.\Generated_Source\PSoC5/Z_Motor_Speed.c **** 
 270:.\Generated_Source\PSoC5/Z_Motor_Speed.c ****                 #if(0 != Z_Motor_Speed_CTRL_CMPMODE1_SHIFT)
 271:.\Generated_Source\PSoC5/Z_Motor_Speed.c ****                     uint8 comparemodemasked = ((uint8)((uint8)comparemode << Z_Motor_Speed_CTRL_CMP
ARM GAS  C:\Users\plod1602\AppData\Local\Temp\cc9ghWcO.s 			page 10


 272:.\Generated_Source\PSoC5/Z_Motor_Speed.c ****                 #else
 273:.\Generated_Source\PSoC5/Z_Motor_Speed.c ****                     uint8 comparemodemasked = comparemode;
 274:.\Generated_Source\PSoC5/Z_Motor_Speed.c ****                 #endif /* (0 != Z_Motor_Speed_CTRL_CMPMODE1_SHIFT) */
 275:.\Generated_Source\PSoC5/Z_Motor_Speed.c **** 
 276:.\Generated_Source\PSoC5/Z_Motor_Speed.c ****                 Z_Motor_Speed_CONTROL3 &= ((uint8)(~Z_Motor_Speed_CTRL_CMPMODE1_MASK)); /*Clear Exi
 277:.\Generated_Source\PSoC5/Z_Motor_Speed.c ****                 Z_Motor_Speed_CONTROL3 |= comparemodemasked;
 278:.\Generated_Source\PSoC5/Z_Motor_Speed.c **** 
 279:.\Generated_Source\PSoC5/Z_Motor_Speed.c ****             #elif (Z_Motor_Speed_UseControl)
 280:.\Generated_Source\PSoC5/Z_Motor_Speed.c **** 
 281:.\Generated_Source\PSoC5/Z_Motor_Speed.c ****                 #if(0 != Z_Motor_Speed_CTRL_CMPMODE1_SHIFT)
 282:.\Generated_Source\PSoC5/Z_Motor_Speed.c ****                     uint8 comparemode1masked = ((uint8)((uint8)comparemode << Z_Motor_Speed_CTRL_CM
 283:.\Generated_Source\PSoC5/Z_Motor_Speed.c ****                                                 Z_Motor_Speed_CTRL_CMPMODE1_MASK;
 284:.\Generated_Source\PSoC5/Z_Motor_Speed.c ****                 #else
 285:.\Generated_Source\PSoC5/Z_Motor_Speed.c ****                     uint8 comparemode1masked = comparemode & Z_Motor_Speed_CTRL_CMPMODE1_MASK;
 243              		.loc 1 285 0
 244 000a FB79     		ldrb	r3, [r7, #7]
 245 000c 03F00703 		and	r3, r3, #7
 246 0010 FB73     		strb	r3, [r7, #15]
 286:.\Generated_Source\PSoC5/Z_Motor_Speed.c ****                 #endif /* (0 != Z_Motor_Speed_CTRL_CMPMODE1_SHIFT) */
 287:.\Generated_Source\PSoC5/Z_Motor_Speed.c **** 
 288:.\Generated_Source\PSoC5/Z_Motor_Speed.c ****                 #if(0 != Z_Motor_Speed_CTRL_CMPMODE2_SHIFT)
 289:.\Generated_Source\PSoC5/Z_Motor_Speed.c ****                     uint8 comparemode2masked = ((uint8)((uint8)comparemode << Z_Motor_Speed_CTRL_CM
 247              		.loc 1 289 0
 248 0012 FB79     		ldrb	r3, [r7, #7]
 249 0014 DB00     		lsls	r3, r3, #3
 250 0016 DBB2     		uxtb	r3, r3
 251 0018 03F03803 		and	r3, r3, #56
 252 001c BB73     		strb	r3, [r7, #14]
 290:.\Generated_Source\PSoC5/Z_Motor_Speed.c ****                                                Z_Motor_Speed_CTRL_CMPMODE2_MASK;
 291:.\Generated_Source\PSoC5/Z_Motor_Speed.c ****                 #else
 292:.\Generated_Source\PSoC5/Z_Motor_Speed.c ****                     uint8 comparemode2masked = comparemode & Z_Motor_Speed_CTRL_CMPMODE2_MASK;
 293:.\Generated_Source\PSoC5/Z_Motor_Speed.c ****                 #endif /* (0 != Z_Motor_Speed_CTRL_CMPMODE2_SHIFT) */
 294:.\Generated_Source\PSoC5/Z_Motor_Speed.c **** 
 295:.\Generated_Source\PSoC5/Z_Motor_Speed.c ****                 /*Clear existing mode */
 296:.\Generated_Source\PSoC5/Z_Motor_Speed.c ****                 Z_Motor_Speed_CONTROL &= ((uint8)(~(Z_Motor_Speed_CTRL_CMPMODE1_MASK |
 253              		.loc 1 296 0
 254 001e 0C4A     		ldr	r2, .L15
 255 0020 0B4B     		ldr	r3, .L15
 256 0022 1B78     		ldrb	r3, [r3]
 257 0024 DBB2     		uxtb	r3, r3
 258 0026 23F03F03 		bic	r3, r3, #63
 259 002a DBB2     		uxtb	r3, r3
 260 002c 1370     		strb	r3, [r2]
 297:.\Generated_Source\PSoC5/Z_Motor_Speed.c ****                                             Z_Motor_Speed_CTRL_CMPMODE2_MASK)));
 298:.\Generated_Source\PSoC5/Z_Motor_Speed.c ****                 Z_Motor_Speed_CONTROL |= (comparemode1masked | comparemode2masked);
 261              		.loc 1 298 0
 262 002e 0848     		ldr	r0, .L15
 263 0030 074B     		ldr	r3, .L15
 264 0032 1B78     		ldrb	r3, [r3]
 265 0034 DAB2     		uxtb	r2, r3
 266 0036 F97B     		ldrb	r1, [r7, #15]
 267 0038 BB7B     		ldrb	r3, [r7, #14]
 268 003a 0B43     		orrs	r3, r3, r1
 269 003c DBB2     		uxtb	r3, r3
 270 003e 1343     		orrs	r3, r3, r2
 271 0040 DBB2     		uxtb	r3, r3
 272 0042 0370     		strb	r3, [r0]
ARM GAS  C:\Users\plod1602\AppData\Local\Temp\cc9ghWcO.s 			page 11


 299:.\Generated_Source\PSoC5/Z_Motor_Speed.c **** 
 300:.\Generated_Source\PSoC5/Z_Motor_Speed.c ****             #else
 301:.\Generated_Source\PSoC5/Z_Motor_Speed.c ****                 uint8 temp = comparemode;
 302:.\Generated_Source\PSoC5/Z_Motor_Speed.c ****             #endif /* (Z_Motor_Speed_UsingFixedFunction) */
 303:.\Generated_Source\PSoC5/Z_Motor_Speed.c ****         }
 273              		.loc 1 303 0
 274 0044 1437     		adds	r7, r7, #20
 275              		.cfi_def_cfa_offset 4
 276 0046 BD46     		mov	sp, r7
 277              		.cfi_def_cfa_register 13
 278              		@ sp needed
 279 0048 5DF8047B 		ldr	r7, [sp], #4
 280              		.cfi_restore 7
 281              		.cfi_def_cfa_offset 0
 282 004c 7047     		bx	lr
 283              	.L16:
 284 004e 00BF     		.align	2
 285              	.L15:
 286 0050 77640040 		.word	1073767543
 287              		.cfi_endproc
 288              	.LFE4:
 289              		.size	Z_Motor_Speed_SetCompareMode, .-Z_Motor_Speed_SetCompareMode
 290              		.section	.text.Z_Motor_Speed_WriteCounter,"ax",%progbits
 291              		.align	2
 292              		.global	Z_Motor_Speed_WriteCounter
 293              		.thumb
 294              		.thumb_func
 295              		.type	Z_Motor_Speed_WriteCounter, %function
 296              	Z_Motor_Speed_WriteCounter:
 297              	.LFB5:
 304:.\Generated_Source\PSoC5/Z_Motor_Speed.c ****     #endif /* Z_Motor_Speed_CompareMode1SW */
 305:.\Generated_Source\PSoC5/Z_Motor_Speed.c **** 
 306:.\Generated_Source\PSoC5/Z_Motor_Speed.c **** #else /* UseOneCompareMode */
 307:.\Generated_Source\PSoC5/Z_Motor_Speed.c **** 
 308:.\Generated_Source\PSoC5/Z_Motor_Speed.c ****     #if (Z_Motor_Speed_CompareMode1SW)
 309:.\Generated_Source\PSoC5/Z_Motor_Speed.c **** 
 310:.\Generated_Source\PSoC5/Z_Motor_Speed.c **** 
 311:.\Generated_Source\PSoC5/Z_Motor_Speed.c ****         /*******************************************************************************
 312:.\Generated_Source\PSoC5/Z_Motor_Speed.c ****         * Function Name: Z_Motor_Speed_SetCompareMode1
 313:.\Generated_Source\PSoC5/Z_Motor_Speed.c ****         ********************************************************************************
 314:.\Generated_Source\PSoC5/Z_Motor_Speed.c ****         *
 315:.\Generated_Source\PSoC5/Z_Motor_Speed.c ****         * Summary:
 316:.\Generated_Source\PSoC5/Z_Motor_Speed.c ****         *  This function writes the Compare Mode for the pwm or pwm1 output
 317:.\Generated_Source\PSoC5/Z_Motor_Speed.c ****         *
 318:.\Generated_Source\PSoC5/Z_Motor_Speed.c ****         * Parameters:
 319:.\Generated_Source\PSoC5/Z_Motor_Speed.c ****         *  comparemode:  The new compare mode for the PWM output. Use the compare types
 320:.\Generated_Source\PSoC5/Z_Motor_Speed.c ****         *                defined in the H file as input arguments.
 321:.\Generated_Source\PSoC5/Z_Motor_Speed.c ****         *
 322:.\Generated_Source\PSoC5/Z_Motor_Speed.c ****         * Return:
 323:.\Generated_Source\PSoC5/Z_Motor_Speed.c ****         *  None
 324:.\Generated_Source\PSoC5/Z_Motor_Speed.c ****         *
 325:.\Generated_Source\PSoC5/Z_Motor_Speed.c ****         *******************************************************************************/
 326:.\Generated_Source\PSoC5/Z_Motor_Speed.c ****         void Z_Motor_Speed_SetCompareMode1(uint8 comparemode) 
 327:.\Generated_Source\PSoC5/Z_Motor_Speed.c ****         {
 328:.\Generated_Source\PSoC5/Z_Motor_Speed.c ****             #if(0 != Z_Motor_Speed_CTRL_CMPMODE1_SHIFT)
 329:.\Generated_Source\PSoC5/Z_Motor_Speed.c ****                 uint8 comparemodemasked = ((uint8)((uint8)comparemode << Z_Motor_Speed_CTRL_CMPMODE
 330:.\Generated_Source\PSoC5/Z_Motor_Speed.c ****                                            Z_Motor_Speed_CTRL_CMPMODE1_MASK;
ARM GAS  C:\Users\plod1602\AppData\Local\Temp\cc9ghWcO.s 			page 12


 331:.\Generated_Source\PSoC5/Z_Motor_Speed.c ****             #else
 332:.\Generated_Source\PSoC5/Z_Motor_Speed.c ****                 uint8 comparemodemasked = comparemode & Z_Motor_Speed_CTRL_CMPMODE1_MASK;
 333:.\Generated_Source\PSoC5/Z_Motor_Speed.c ****             #endif /* (0 != Z_Motor_Speed_CTRL_CMPMODE1_SHIFT) */
 334:.\Generated_Source\PSoC5/Z_Motor_Speed.c **** 
 335:.\Generated_Source\PSoC5/Z_Motor_Speed.c ****             #if (Z_Motor_Speed_UseControl)
 336:.\Generated_Source\PSoC5/Z_Motor_Speed.c ****                 Z_Motor_Speed_CONTROL &= ((uint8)(~Z_Motor_Speed_CTRL_CMPMODE1_MASK)); /*Clear exis
 337:.\Generated_Source\PSoC5/Z_Motor_Speed.c ****                 Z_Motor_Speed_CONTROL |= comparemodemasked;
 338:.\Generated_Source\PSoC5/Z_Motor_Speed.c ****             #endif /* (Z_Motor_Speed_UseControl) */
 339:.\Generated_Source\PSoC5/Z_Motor_Speed.c ****         }
 340:.\Generated_Source\PSoC5/Z_Motor_Speed.c ****     #endif /* Z_Motor_Speed_CompareMode1SW */
 341:.\Generated_Source\PSoC5/Z_Motor_Speed.c **** 
 342:.\Generated_Source\PSoC5/Z_Motor_Speed.c **** #if (Z_Motor_Speed_CompareMode2SW)
 343:.\Generated_Source\PSoC5/Z_Motor_Speed.c **** 
 344:.\Generated_Source\PSoC5/Z_Motor_Speed.c **** 
 345:.\Generated_Source\PSoC5/Z_Motor_Speed.c ****     /*******************************************************************************
 346:.\Generated_Source\PSoC5/Z_Motor_Speed.c ****     * Function Name: Z_Motor_Speed_SetCompareMode2
 347:.\Generated_Source\PSoC5/Z_Motor_Speed.c ****     ********************************************************************************
 348:.\Generated_Source\PSoC5/Z_Motor_Speed.c ****     *
 349:.\Generated_Source\PSoC5/Z_Motor_Speed.c ****     * Summary:
 350:.\Generated_Source\PSoC5/Z_Motor_Speed.c ****     *  This function writes the Compare Mode for the pwm or pwm2 output
 351:.\Generated_Source\PSoC5/Z_Motor_Speed.c ****     *
 352:.\Generated_Source\PSoC5/Z_Motor_Speed.c ****     * Parameters:
 353:.\Generated_Source\PSoC5/Z_Motor_Speed.c ****     *  comparemode:  The new compare mode for the PWM output. Use the compare types
 354:.\Generated_Source\PSoC5/Z_Motor_Speed.c ****     *                defined in the H file as input arguments.
 355:.\Generated_Source\PSoC5/Z_Motor_Speed.c ****     *
 356:.\Generated_Source\PSoC5/Z_Motor_Speed.c ****     * Return:
 357:.\Generated_Source\PSoC5/Z_Motor_Speed.c ****     *  None
 358:.\Generated_Source\PSoC5/Z_Motor_Speed.c ****     *
 359:.\Generated_Source\PSoC5/Z_Motor_Speed.c ****     *******************************************************************************/
 360:.\Generated_Source\PSoC5/Z_Motor_Speed.c ****     void Z_Motor_Speed_SetCompareMode2(uint8 comparemode) 
 361:.\Generated_Source\PSoC5/Z_Motor_Speed.c ****     {
 362:.\Generated_Source\PSoC5/Z_Motor_Speed.c **** 
 363:.\Generated_Source\PSoC5/Z_Motor_Speed.c ****         #if(0 != Z_Motor_Speed_CTRL_CMPMODE2_SHIFT)
 364:.\Generated_Source\PSoC5/Z_Motor_Speed.c ****             uint8 comparemodemasked = ((uint8)((uint8)comparemode << Z_Motor_Speed_CTRL_CMPMODE2_SH
 365:.\Generated_Source\PSoC5/Z_Motor_Speed.c ****                                                  Z_Motor_Speed_CTRL_CMPMODE2_MASK;
 366:.\Generated_Source\PSoC5/Z_Motor_Speed.c ****         #else
 367:.\Generated_Source\PSoC5/Z_Motor_Speed.c ****             uint8 comparemodemasked = comparemode & Z_Motor_Speed_CTRL_CMPMODE2_MASK;
 368:.\Generated_Source\PSoC5/Z_Motor_Speed.c ****         #endif /* (0 != Z_Motor_Speed_CTRL_CMPMODE2_SHIFT) */
 369:.\Generated_Source\PSoC5/Z_Motor_Speed.c **** 
 370:.\Generated_Source\PSoC5/Z_Motor_Speed.c ****         #if (Z_Motor_Speed_UseControl)
 371:.\Generated_Source\PSoC5/Z_Motor_Speed.c ****             Z_Motor_Speed_CONTROL &= ((uint8)(~Z_Motor_Speed_CTRL_CMPMODE2_MASK)); /*Clear existing
 372:.\Generated_Source\PSoC5/Z_Motor_Speed.c ****             Z_Motor_Speed_CONTROL |= comparemodemasked;
 373:.\Generated_Source\PSoC5/Z_Motor_Speed.c ****         #endif /* (Z_Motor_Speed_UseControl) */
 374:.\Generated_Source\PSoC5/Z_Motor_Speed.c ****     }
 375:.\Generated_Source\PSoC5/Z_Motor_Speed.c ****     #endif /*Z_Motor_Speed_CompareMode2SW */
 376:.\Generated_Source\PSoC5/Z_Motor_Speed.c **** 
 377:.\Generated_Source\PSoC5/Z_Motor_Speed.c **** #endif /* UseOneCompareMode */
 378:.\Generated_Source\PSoC5/Z_Motor_Speed.c **** 
 379:.\Generated_Source\PSoC5/Z_Motor_Speed.c **** 
 380:.\Generated_Source\PSoC5/Z_Motor_Speed.c **** #if (!Z_Motor_Speed_UsingFixedFunction)
 381:.\Generated_Source\PSoC5/Z_Motor_Speed.c **** 
 382:.\Generated_Source\PSoC5/Z_Motor_Speed.c **** 
 383:.\Generated_Source\PSoC5/Z_Motor_Speed.c ****     /*******************************************************************************
 384:.\Generated_Source\PSoC5/Z_Motor_Speed.c ****     * Function Name: Z_Motor_Speed_WriteCounter
 385:.\Generated_Source\PSoC5/Z_Motor_Speed.c ****     ********************************************************************************
 386:.\Generated_Source\PSoC5/Z_Motor_Speed.c ****     *
 387:.\Generated_Source\PSoC5/Z_Motor_Speed.c ****     * Summary:
ARM GAS  C:\Users\plod1602\AppData\Local\Temp\cc9ghWcO.s 			page 13


 388:.\Generated_Source\PSoC5/Z_Motor_Speed.c ****     *  Writes a new counter value directly to the counter register. This will be
 389:.\Generated_Source\PSoC5/Z_Motor_Speed.c ****     *  implemented for that currently running period and only that period. This API
 390:.\Generated_Source\PSoC5/Z_Motor_Speed.c ****     *  is valid only for UDB implementation and not available for fixed function
 391:.\Generated_Source\PSoC5/Z_Motor_Speed.c ****     *  PWM implementation.
 392:.\Generated_Source\PSoC5/Z_Motor_Speed.c ****     *
 393:.\Generated_Source\PSoC5/Z_Motor_Speed.c ****     * Parameters:
 394:.\Generated_Source\PSoC5/Z_Motor_Speed.c ****     *  counter:  The period new period counter value.
 395:.\Generated_Source\PSoC5/Z_Motor_Speed.c ****     *
 396:.\Generated_Source\PSoC5/Z_Motor_Speed.c ****     * Return:
 397:.\Generated_Source\PSoC5/Z_Motor_Speed.c ****     *  None
 398:.\Generated_Source\PSoC5/Z_Motor_Speed.c ****     *
 399:.\Generated_Source\PSoC5/Z_Motor_Speed.c ****     * Side Effects:
 400:.\Generated_Source\PSoC5/Z_Motor_Speed.c ****     *  The PWM Period will be reloaded when a counter value will be a zero
 401:.\Generated_Source\PSoC5/Z_Motor_Speed.c ****     *
 402:.\Generated_Source\PSoC5/Z_Motor_Speed.c ****     *******************************************************************************/
 403:.\Generated_Source\PSoC5/Z_Motor_Speed.c ****     void Z_Motor_Speed_WriteCounter(uint16 counter) \
 404:.\Generated_Source\PSoC5/Z_Motor_Speed.c ****                                        
 405:.\Generated_Source\PSoC5/Z_Motor_Speed.c ****     {
 298              		.loc 1 405 0
 299              		.cfi_startproc
 300              		@ args = 0, pretend = 0, frame = 8
 301              		@ frame_needed = 1, uses_anonymous_args = 0
 302              		@ link register save eliminated.
 303 0000 80B4     		push	{r7}
 304              		.cfi_def_cfa_offset 4
 305              		.cfi_offset 7, -4
 306 0002 83B0     		sub	sp, sp, #12
 307              		.cfi_def_cfa_offset 16
 308 0004 00AF     		add	r7, sp, #0
 309              		.cfi_def_cfa_register 7
 310 0006 0346     		mov	r3, r0
 311 0008 FB80     		strh	r3, [r7, #6]	@ movhi
 406:.\Generated_Source\PSoC5/Z_Motor_Speed.c ****         CY_SET_REG16(Z_Motor_Speed_COUNTER_LSB_PTR, counter);
 312              		.loc 1 406 0
 313 000a 044A     		ldr	r2, .L18
 314 000c FB88     		ldrh	r3, [r7, #6]	@ movhi
 315 000e 1380     		strh	r3, [r2]	@ movhi
 407:.\Generated_Source\PSoC5/Z_Motor_Speed.c ****     }
 316              		.loc 1 407 0
 317 0010 0C37     		adds	r7, r7, #12
 318              		.cfi_def_cfa_offset 4
 319 0012 BD46     		mov	sp, r7
 320              		.cfi_def_cfa_register 13
 321              		@ sp needed
 322 0014 5DF8047B 		ldr	r7, [sp], #4
 323              		.cfi_restore 7
 324              		.cfi_def_cfa_offset 0
 325 0018 7047     		bx	lr
 326              	.L19:
 327 001a 00BF     		.align	2
 328              	.L18:
 329 001c 0C680040 		.word	1073768460
 330              		.cfi_endproc
 331              	.LFE5:
 332              		.size	Z_Motor_Speed_WriteCounter, .-Z_Motor_Speed_WriteCounter
 333              		.section	.text.Z_Motor_Speed_ReadCounter,"ax",%progbits
 334              		.align	2
ARM GAS  C:\Users\plod1602\AppData\Local\Temp\cc9ghWcO.s 			page 14


 335              		.global	Z_Motor_Speed_ReadCounter
 336              		.thumb
 337              		.thumb_func
 338              		.type	Z_Motor_Speed_ReadCounter, %function
 339              	Z_Motor_Speed_ReadCounter:
 340              	.LFB6:
 408:.\Generated_Source\PSoC5/Z_Motor_Speed.c **** 
 409:.\Generated_Source\PSoC5/Z_Motor_Speed.c **** 
 410:.\Generated_Source\PSoC5/Z_Motor_Speed.c ****     /*******************************************************************************
 411:.\Generated_Source\PSoC5/Z_Motor_Speed.c ****     * Function Name: Z_Motor_Speed_ReadCounter
 412:.\Generated_Source\PSoC5/Z_Motor_Speed.c ****     ********************************************************************************
 413:.\Generated_Source\PSoC5/Z_Motor_Speed.c ****     *
 414:.\Generated_Source\PSoC5/Z_Motor_Speed.c ****     * Summary:
 415:.\Generated_Source\PSoC5/Z_Motor_Speed.c ****     *  This function returns the current value of the counter.  It doesn't matter
 416:.\Generated_Source\PSoC5/Z_Motor_Speed.c ****     *  if the counter is enabled or running.
 417:.\Generated_Source\PSoC5/Z_Motor_Speed.c ****     *
 418:.\Generated_Source\PSoC5/Z_Motor_Speed.c ****     * Parameters:
 419:.\Generated_Source\PSoC5/Z_Motor_Speed.c ****     *  None
 420:.\Generated_Source\PSoC5/Z_Motor_Speed.c ****     *
 421:.\Generated_Source\PSoC5/Z_Motor_Speed.c ****     * Return:
 422:.\Generated_Source\PSoC5/Z_Motor_Speed.c ****     *  The current value of the counter.
 423:.\Generated_Source\PSoC5/Z_Motor_Speed.c ****     *
 424:.\Generated_Source\PSoC5/Z_Motor_Speed.c ****     *******************************************************************************/
 425:.\Generated_Source\PSoC5/Z_Motor_Speed.c ****     uint16 Z_Motor_Speed_ReadCounter(void) 
 426:.\Generated_Source\PSoC5/Z_Motor_Speed.c ****     {
 341              		.loc 1 426 0
 342              		.cfi_startproc
 343              		@ args = 0, pretend = 0, frame = 0
 344              		@ frame_needed = 1, uses_anonymous_args = 0
 345              		@ link register save eliminated.
 346 0000 80B4     		push	{r7}
 347              		.cfi_def_cfa_offset 4
 348              		.cfi_offset 7, -4
 349 0002 00AF     		add	r7, sp, #0
 350              		.cfi_def_cfa_register 7
 427:.\Generated_Source\PSoC5/Z_Motor_Speed.c ****         /* Force capture by reading Accumulator */
 428:.\Generated_Source\PSoC5/Z_Motor_Speed.c ****         /* Must first do a software capture to be able to read the counter */
 429:.\Generated_Source\PSoC5/Z_Motor_Speed.c ****         /* It is up to the user code to make sure there isn't already captured data in the FIFO */
 430:.\Generated_Source\PSoC5/Z_Motor_Speed.c ****           (void)CY_GET_REG8(Z_Motor_Speed_COUNTERCAP_LSB_PTR_8BIT);
 351              		.loc 1 430 0
 352 0004 044B     		ldr	r3, .L22
 353 0006 1B78     		ldrb	r3, [r3]
 431:.\Generated_Source\PSoC5/Z_Motor_Speed.c **** 
 432:.\Generated_Source\PSoC5/Z_Motor_Speed.c ****         /* Read the data from the FIFO */
 433:.\Generated_Source\PSoC5/Z_Motor_Speed.c ****         return (CY_GET_REG16(Z_Motor_Speed_CAPTURE_LSB_PTR));
 354              		.loc 1 433 0
 355 0008 044B     		ldr	r3, .L22+4
 356 000a 1B88     		ldrh	r3, [r3]	@ movhi
 357 000c 9BB2     		uxth	r3, r3
 434:.\Generated_Source\PSoC5/Z_Motor_Speed.c ****     }
 358              		.loc 1 434 0
 359 000e 1846     		mov	r0, r3
 360 0010 BD46     		mov	sp, r7
 361              		.cfi_def_cfa_register 13
 362              		@ sp needed
 363 0012 5DF8047B 		ldr	r7, [sp], #4
 364              		.cfi_restore 7
ARM GAS  C:\Users\plod1602\AppData\Local\Temp\cc9ghWcO.s 			page 15


 365              		.cfi_def_cfa_offset 0
 366 0016 7047     		bx	lr
 367              	.L23:
 368              		.align	2
 369              	.L22:
 370 0018 16640040 		.word	1073767446
 371 001c AC680040 		.word	1073768620
 372              		.cfi_endproc
 373              	.LFE6:
 374              		.size	Z_Motor_Speed_ReadCounter, .-Z_Motor_Speed_ReadCounter
 375              		.section	.text.Z_Motor_Speed_WritePeriod,"ax",%progbits
 376              		.align	2
 377              		.global	Z_Motor_Speed_WritePeriod
 378              		.thumb
 379              		.thumb_func
 380              		.type	Z_Motor_Speed_WritePeriod, %function
 381              	Z_Motor_Speed_WritePeriod:
 382              	.LFB7:
 435:.\Generated_Source\PSoC5/Z_Motor_Speed.c **** 
 436:.\Generated_Source\PSoC5/Z_Motor_Speed.c ****     #if (Z_Motor_Speed_UseStatus)
 437:.\Generated_Source\PSoC5/Z_Motor_Speed.c **** 
 438:.\Generated_Source\PSoC5/Z_Motor_Speed.c **** 
 439:.\Generated_Source\PSoC5/Z_Motor_Speed.c ****         /*******************************************************************************
 440:.\Generated_Source\PSoC5/Z_Motor_Speed.c ****         * Function Name: Z_Motor_Speed_ClearFIFO
 441:.\Generated_Source\PSoC5/Z_Motor_Speed.c ****         ********************************************************************************
 442:.\Generated_Source\PSoC5/Z_Motor_Speed.c ****         *
 443:.\Generated_Source\PSoC5/Z_Motor_Speed.c ****         * Summary:
 444:.\Generated_Source\PSoC5/Z_Motor_Speed.c ****         *  This function clears all capture data from the capture FIFO
 445:.\Generated_Source\PSoC5/Z_Motor_Speed.c ****         *
 446:.\Generated_Source\PSoC5/Z_Motor_Speed.c ****         * Parameters:
 447:.\Generated_Source\PSoC5/Z_Motor_Speed.c ****         *  None
 448:.\Generated_Source\PSoC5/Z_Motor_Speed.c ****         *
 449:.\Generated_Source\PSoC5/Z_Motor_Speed.c ****         * Return:
 450:.\Generated_Source\PSoC5/Z_Motor_Speed.c ****         *  None
 451:.\Generated_Source\PSoC5/Z_Motor_Speed.c ****         *
 452:.\Generated_Source\PSoC5/Z_Motor_Speed.c ****         *******************************************************************************/
 453:.\Generated_Source\PSoC5/Z_Motor_Speed.c ****         void Z_Motor_Speed_ClearFIFO(void) 
 454:.\Generated_Source\PSoC5/Z_Motor_Speed.c ****         {
 455:.\Generated_Source\PSoC5/Z_Motor_Speed.c ****             while(0u != (Z_Motor_Speed_ReadStatusRegister() & Z_Motor_Speed_STATUS_FIFONEMPTY))
 456:.\Generated_Source\PSoC5/Z_Motor_Speed.c ****             {
 457:.\Generated_Source\PSoC5/Z_Motor_Speed.c ****                 (void)Z_Motor_Speed_ReadCapture();
 458:.\Generated_Source\PSoC5/Z_Motor_Speed.c ****             }
 459:.\Generated_Source\PSoC5/Z_Motor_Speed.c ****         }
 460:.\Generated_Source\PSoC5/Z_Motor_Speed.c **** 
 461:.\Generated_Source\PSoC5/Z_Motor_Speed.c ****     #endif /* Z_Motor_Speed_UseStatus */
 462:.\Generated_Source\PSoC5/Z_Motor_Speed.c **** 
 463:.\Generated_Source\PSoC5/Z_Motor_Speed.c **** #endif /* !Z_Motor_Speed_UsingFixedFunction */
 464:.\Generated_Source\PSoC5/Z_Motor_Speed.c **** 
 465:.\Generated_Source\PSoC5/Z_Motor_Speed.c **** 
 466:.\Generated_Source\PSoC5/Z_Motor_Speed.c **** /*******************************************************************************
 467:.\Generated_Source\PSoC5/Z_Motor_Speed.c **** * Function Name: Z_Motor_Speed_WritePeriod
 468:.\Generated_Source\PSoC5/Z_Motor_Speed.c **** ********************************************************************************
 469:.\Generated_Source\PSoC5/Z_Motor_Speed.c **** *
 470:.\Generated_Source\PSoC5/Z_Motor_Speed.c **** * Summary:
 471:.\Generated_Source\PSoC5/Z_Motor_Speed.c **** *  This function is used to change the period of the counter.  The new period
 472:.\Generated_Source\PSoC5/Z_Motor_Speed.c **** *  will be loaded the next time terminal count is detected.
 473:.\Generated_Source\PSoC5/Z_Motor_Speed.c **** *
ARM GAS  C:\Users\plod1602\AppData\Local\Temp\cc9ghWcO.s 			page 16


 474:.\Generated_Source\PSoC5/Z_Motor_Speed.c **** * Parameters:
 475:.\Generated_Source\PSoC5/Z_Motor_Speed.c **** *  period:  Period value. May be between 1 and (2^Resolution)-1.  A value of 0
 476:.\Generated_Source\PSoC5/Z_Motor_Speed.c **** *           will result in the counter remaining at zero.
 477:.\Generated_Source\PSoC5/Z_Motor_Speed.c **** *
 478:.\Generated_Source\PSoC5/Z_Motor_Speed.c **** * Return:
 479:.\Generated_Source\PSoC5/Z_Motor_Speed.c **** *  None
 480:.\Generated_Source\PSoC5/Z_Motor_Speed.c **** *
 481:.\Generated_Source\PSoC5/Z_Motor_Speed.c **** *******************************************************************************/
 482:.\Generated_Source\PSoC5/Z_Motor_Speed.c **** void Z_Motor_Speed_WritePeriod(uint16 period) 
 483:.\Generated_Source\PSoC5/Z_Motor_Speed.c **** {
 383              		.loc 1 483 0
 384              		.cfi_startproc
 385              		@ args = 0, pretend = 0, frame = 8
 386              		@ frame_needed = 1, uses_anonymous_args = 0
 387              		@ link register save eliminated.
 388 0000 80B4     		push	{r7}
 389              		.cfi_def_cfa_offset 4
 390              		.cfi_offset 7, -4
 391 0002 83B0     		sub	sp, sp, #12
 392              		.cfi_def_cfa_offset 16
 393 0004 00AF     		add	r7, sp, #0
 394              		.cfi_def_cfa_register 7
 395 0006 0346     		mov	r3, r0
 396 0008 FB80     		strh	r3, [r7, #6]	@ movhi
 484:.\Generated_Source\PSoC5/Z_Motor_Speed.c ****     #if(Z_Motor_Speed_UsingFixedFunction)
 485:.\Generated_Source\PSoC5/Z_Motor_Speed.c ****         CY_SET_REG16(Z_Motor_Speed_PERIOD_LSB_PTR, (uint16)period);
 486:.\Generated_Source\PSoC5/Z_Motor_Speed.c ****     #else
 487:.\Generated_Source\PSoC5/Z_Motor_Speed.c ****         CY_SET_REG16(Z_Motor_Speed_PERIOD_LSB_PTR, period);
 397              		.loc 1 487 0
 398 000a 044A     		ldr	r2, .L25
 399 000c FB88     		ldrh	r3, [r7, #6]	@ movhi
 400 000e 1380     		strh	r3, [r2]	@ movhi
 488:.\Generated_Source\PSoC5/Z_Motor_Speed.c ****     #endif /* (Z_Motor_Speed_UsingFixedFunction) */
 489:.\Generated_Source\PSoC5/Z_Motor_Speed.c **** }
 401              		.loc 1 489 0
 402 0010 0C37     		adds	r7, r7, #12
 403              		.cfi_def_cfa_offset 4
 404 0012 BD46     		mov	sp, r7
 405              		.cfi_def_cfa_register 13
 406              		@ sp needed
 407 0014 5DF8047B 		ldr	r7, [sp], #4
 408              		.cfi_restore 7
 409              		.cfi_def_cfa_offset 0
 410 0018 7047     		bx	lr
 411              	.L26:
 412 001a 00BF     		.align	2
 413              	.L25:
 414 001c 8C680040 		.word	1073768588
 415              		.cfi_endproc
 416              	.LFE7:
 417              		.size	Z_Motor_Speed_WritePeriod, .-Z_Motor_Speed_WritePeriod
 418              		.section	.text.Z_Motor_Speed_WriteCompare,"ax",%progbits
 419              		.align	2
 420              		.global	Z_Motor_Speed_WriteCompare
 421              		.thumb
 422              		.thumb_func
 423              		.type	Z_Motor_Speed_WriteCompare, %function
ARM GAS  C:\Users\plod1602\AppData\Local\Temp\cc9ghWcO.s 			page 17


 424              	Z_Motor_Speed_WriteCompare:
 425              	.LFB8:
 490:.\Generated_Source\PSoC5/Z_Motor_Speed.c **** 
 491:.\Generated_Source\PSoC5/Z_Motor_Speed.c **** #if (Z_Motor_Speed_UseOneCompareMode)
 492:.\Generated_Source\PSoC5/Z_Motor_Speed.c **** 
 493:.\Generated_Source\PSoC5/Z_Motor_Speed.c **** 
 494:.\Generated_Source\PSoC5/Z_Motor_Speed.c ****     /*******************************************************************************
 495:.\Generated_Source\PSoC5/Z_Motor_Speed.c ****     * Function Name: Z_Motor_Speed_WriteCompare
 496:.\Generated_Source\PSoC5/Z_Motor_Speed.c ****     ********************************************************************************
 497:.\Generated_Source\PSoC5/Z_Motor_Speed.c ****     *
 498:.\Generated_Source\PSoC5/Z_Motor_Speed.c ****     * Summary:
 499:.\Generated_Source\PSoC5/Z_Motor_Speed.c ****     *  This funtion is used to change the compare1 value when the PWM is in Dither
 500:.\Generated_Source\PSoC5/Z_Motor_Speed.c ****     *  mode. The compare output will reflect the new value on the next UDB clock.
 501:.\Generated_Source\PSoC5/Z_Motor_Speed.c ****     *  The compare output will be driven high when the present counter value is
 502:.\Generated_Source\PSoC5/Z_Motor_Speed.c ****     *  compared to the compare value based on the compare mode defined in
 503:.\Generated_Source\PSoC5/Z_Motor_Speed.c ****     *  Dither Mode.
 504:.\Generated_Source\PSoC5/Z_Motor_Speed.c ****     *
 505:.\Generated_Source\PSoC5/Z_Motor_Speed.c ****     * Parameters:
 506:.\Generated_Source\PSoC5/Z_Motor_Speed.c ****     *  compare:  New compare value.
 507:.\Generated_Source\PSoC5/Z_Motor_Speed.c ****     *
 508:.\Generated_Source\PSoC5/Z_Motor_Speed.c ****     * Return:
 509:.\Generated_Source\PSoC5/Z_Motor_Speed.c ****     *  None
 510:.\Generated_Source\PSoC5/Z_Motor_Speed.c ****     *
 511:.\Generated_Source\PSoC5/Z_Motor_Speed.c ****     * Side Effects:
 512:.\Generated_Source\PSoC5/Z_Motor_Speed.c ****     *  This function is only available if the PWM mode parameter is set to
 513:.\Generated_Source\PSoC5/Z_Motor_Speed.c ****     *  Dither Mode, Center Aligned Mode or One Output Mode
 514:.\Generated_Source\PSoC5/Z_Motor_Speed.c ****     *
 515:.\Generated_Source\PSoC5/Z_Motor_Speed.c ****     *******************************************************************************/
 516:.\Generated_Source\PSoC5/Z_Motor_Speed.c ****     void Z_Motor_Speed_WriteCompare(uint16 compare) \
 517:.\Generated_Source\PSoC5/Z_Motor_Speed.c ****                                        
 518:.\Generated_Source\PSoC5/Z_Motor_Speed.c ****     {
 426              		.loc 1 518 0
 427              		.cfi_startproc
 428              		@ args = 0, pretend = 0, frame = 8
 429              		@ frame_needed = 1, uses_anonymous_args = 0
 430              		@ link register save eliminated.
 431 0000 80B4     		push	{r7}
 432              		.cfi_def_cfa_offset 4
 433              		.cfi_offset 7, -4
 434 0002 83B0     		sub	sp, sp, #12
 435              		.cfi_def_cfa_offset 16
 436 0004 00AF     		add	r7, sp, #0
 437              		.cfi_def_cfa_register 7
 438 0006 0346     		mov	r3, r0
 439 0008 FB80     		strh	r3, [r7, #6]	@ movhi
 519:.\Generated_Source\PSoC5/Z_Motor_Speed.c ****         #if(Z_Motor_Speed_UsingFixedFunction)
 520:.\Generated_Source\PSoC5/Z_Motor_Speed.c ****             CY_SET_REG16(Z_Motor_Speed_COMPARE1_LSB_PTR, (uint16)compare);
 521:.\Generated_Source\PSoC5/Z_Motor_Speed.c ****         #else
 522:.\Generated_Source\PSoC5/Z_Motor_Speed.c ****             CY_SET_REG16(Z_Motor_Speed_COMPARE1_LSB_PTR, compare);
 440              		.loc 1 522 0
 441 000a 044A     		ldr	r2, .L28
 442 000c FB88     		ldrh	r3, [r7, #6]	@ movhi
 443 000e 1380     		strh	r3, [r2]	@ movhi
 523:.\Generated_Source\PSoC5/Z_Motor_Speed.c ****         #endif /* (Z_Motor_Speed_UsingFixedFunction) */
 524:.\Generated_Source\PSoC5/Z_Motor_Speed.c **** 
 525:.\Generated_Source\PSoC5/Z_Motor_Speed.c ****         #if (Z_Motor_Speed_PWMMode == Z_Motor_Speed__B_PWM__DITHER)
 526:.\Generated_Source\PSoC5/Z_Motor_Speed.c ****             #if(Z_Motor_Speed_UsingFixedFunction)
ARM GAS  C:\Users\plod1602\AppData\Local\Temp\cc9ghWcO.s 			page 18


 527:.\Generated_Source\PSoC5/Z_Motor_Speed.c ****                 CY_SET_REG16(Z_Motor_Speed_COMPARE2_LSB_PTR, (uint16)(compare + 1u));
 528:.\Generated_Source\PSoC5/Z_Motor_Speed.c ****             #else
 529:.\Generated_Source\PSoC5/Z_Motor_Speed.c ****                 CY_SET_REG16(Z_Motor_Speed_COMPARE2_LSB_PTR, (compare + 1u));
 530:.\Generated_Source\PSoC5/Z_Motor_Speed.c ****             #endif /* (Z_Motor_Speed_UsingFixedFunction) */
 531:.\Generated_Source\PSoC5/Z_Motor_Speed.c ****         #endif /* (Z_Motor_Speed_PWMMode == Z_Motor_Speed__B_PWM__DITHER) */
 532:.\Generated_Source\PSoC5/Z_Motor_Speed.c ****     }
 444              		.loc 1 532 0
 445 0010 0C37     		adds	r7, r7, #12
 446              		.cfi_def_cfa_offset 4
 447 0012 BD46     		mov	sp, r7
 448              		.cfi_def_cfa_register 13
 449              		@ sp needed
 450 0014 5DF8047B 		ldr	r7, [sp], #4
 451              		.cfi_restore 7
 452              		.cfi_def_cfa_offset 0
 453 0018 7047     		bx	lr
 454              	.L29:
 455 001a 00BF     		.align	2
 456              	.L28:
 457 001c 4C680040 		.word	1073768524
 458              		.cfi_endproc
 459              	.LFE8:
 460              		.size	Z_Motor_Speed_WriteCompare, .-Z_Motor_Speed_WriteCompare
 461              		.section	.text.Z_Motor_Speed_ReadControlRegister,"ax",%progbits
 462              		.align	2
 463              		.global	Z_Motor_Speed_ReadControlRegister
 464              		.thumb
 465              		.thumb_func
 466              		.type	Z_Motor_Speed_ReadControlRegister, %function
 467              	Z_Motor_Speed_ReadControlRegister:
 468              	.LFB9:
 533:.\Generated_Source\PSoC5/Z_Motor_Speed.c **** 
 534:.\Generated_Source\PSoC5/Z_Motor_Speed.c **** 
 535:.\Generated_Source\PSoC5/Z_Motor_Speed.c **** #else
 536:.\Generated_Source\PSoC5/Z_Motor_Speed.c **** 
 537:.\Generated_Source\PSoC5/Z_Motor_Speed.c **** 
 538:.\Generated_Source\PSoC5/Z_Motor_Speed.c ****     /*******************************************************************************
 539:.\Generated_Source\PSoC5/Z_Motor_Speed.c ****     * Function Name: Z_Motor_Speed_WriteCompare1
 540:.\Generated_Source\PSoC5/Z_Motor_Speed.c ****     ********************************************************************************
 541:.\Generated_Source\PSoC5/Z_Motor_Speed.c ****     *
 542:.\Generated_Source\PSoC5/Z_Motor_Speed.c ****     * Summary:
 543:.\Generated_Source\PSoC5/Z_Motor_Speed.c ****     *  This funtion is used to change the compare1 value.  The compare output will
 544:.\Generated_Source\PSoC5/Z_Motor_Speed.c ****     *  reflect the new value on the next UDB clock.  The compare output will be
 545:.\Generated_Source\PSoC5/Z_Motor_Speed.c ****     *  driven high when the present counter value is less than or less than or
 546:.\Generated_Source\PSoC5/Z_Motor_Speed.c ****     *  equal to the compare register, depending on the mode.
 547:.\Generated_Source\PSoC5/Z_Motor_Speed.c ****     *
 548:.\Generated_Source\PSoC5/Z_Motor_Speed.c ****     * Parameters:
 549:.\Generated_Source\PSoC5/Z_Motor_Speed.c ****     *  compare:  New compare value.
 550:.\Generated_Source\PSoC5/Z_Motor_Speed.c ****     *
 551:.\Generated_Source\PSoC5/Z_Motor_Speed.c ****     * Return:
 552:.\Generated_Source\PSoC5/Z_Motor_Speed.c ****     *  None
 553:.\Generated_Source\PSoC5/Z_Motor_Speed.c ****     *
 554:.\Generated_Source\PSoC5/Z_Motor_Speed.c ****     *******************************************************************************/
 555:.\Generated_Source\PSoC5/Z_Motor_Speed.c ****     void Z_Motor_Speed_WriteCompare1(uint16 compare) \
 556:.\Generated_Source\PSoC5/Z_Motor_Speed.c ****                                         
 557:.\Generated_Source\PSoC5/Z_Motor_Speed.c ****     {
 558:.\Generated_Source\PSoC5/Z_Motor_Speed.c ****         #if(Z_Motor_Speed_UsingFixedFunction)
ARM GAS  C:\Users\plod1602\AppData\Local\Temp\cc9ghWcO.s 			page 19


 559:.\Generated_Source\PSoC5/Z_Motor_Speed.c ****             CY_SET_REG16(Z_Motor_Speed_COMPARE1_LSB_PTR, (uint16)compare);
 560:.\Generated_Source\PSoC5/Z_Motor_Speed.c ****         #else
 561:.\Generated_Source\PSoC5/Z_Motor_Speed.c ****             CY_SET_REG16(Z_Motor_Speed_COMPARE1_LSB_PTR, compare);
 562:.\Generated_Source\PSoC5/Z_Motor_Speed.c ****         #endif /* (Z_Motor_Speed_UsingFixedFunction) */
 563:.\Generated_Source\PSoC5/Z_Motor_Speed.c ****     }
 564:.\Generated_Source\PSoC5/Z_Motor_Speed.c **** 
 565:.\Generated_Source\PSoC5/Z_Motor_Speed.c **** 
 566:.\Generated_Source\PSoC5/Z_Motor_Speed.c ****     /*******************************************************************************
 567:.\Generated_Source\PSoC5/Z_Motor_Speed.c ****     * Function Name: Z_Motor_Speed_WriteCompare2
 568:.\Generated_Source\PSoC5/Z_Motor_Speed.c ****     ********************************************************************************
 569:.\Generated_Source\PSoC5/Z_Motor_Speed.c ****     *
 570:.\Generated_Source\PSoC5/Z_Motor_Speed.c ****     * Summary:
 571:.\Generated_Source\PSoC5/Z_Motor_Speed.c ****     *  This funtion is used to change the compare value, for compare1 output.
 572:.\Generated_Source\PSoC5/Z_Motor_Speed.c ****     *  The compare output will reflect the new value on the next UDB clock.
 573:.\Generated_Source\PSoC5/Z_Motor_Speed.c ****     *  The compare output will be driven high when the present counter value is
 574:.\Generated_Source\PSoC5/Z_Motor_Speed.c ****     *  less than or less than or equal to the compare register, depending on the
 575:.\Generated_Source\PSoC5/Z_Motor_Speed.c ****     *  mode.
 576:.\Generated_Source\PSoC5/Z_Motor_Speed.c ****     *
 577:.\Generated_Source\PSoC5/Z_Motor_Speed.c ****     * Parameters:
 578:.\Generated_Source\PSoC5/Z_Motor_Speed.c ****     *  compare:  New compare value.
 579:.\Generated_Source\PSoC5/Z_Motor_Speed.c ****     *
 580:.\Generated_Source\PSoC5/Z_Motor_Speed.c ****     * Return:
 581:.\Generated_Source\PSoC5/Z_Motor_Speed.c ****     *  None
 582:.\Generated_Source\PSoC5/Z_Motor_Speed.c ****     *
 583:.\Generated_Source\PSoC5/Z_Motor_Speed.c ****     *******************************************************************************/
 584:.\Generated_Source\PSoC5/Z_Motor_Speed.c ****     void Z_Motor_Speed_WriteCompare2(uint16 compare) \
 585:.\Generated_Source\PSoC5/Z_Motor_Speed.c ****                                         
 586:.\Generated_Source\PSoC5/Z_Motor_Speed.c ****     {
 587:.\Generated_Source\PSoC5/Z_Motor_Speed.c ****         #if(Z_Motor_Speed_UsingFixedFunction)
 588:.\Generated_Source\PSoC5/Z_Motor_Speed.c ****             CY_SET_REG16(Z_Motor_Speed_COMPARE2_LSB_PTR, compare);
 589:.\Generated_Source\PSoC5/Z_Motor_Speed.c ****         #else
 590:.\Generated_Source\PSoC5/Z_Motor_Speed.c ****             CY_SET_REG16(Z_Motor_Speed_COMPARE2_LSB_PTR, compare);
 591:.\Generated_Source\PSoC5/Z_Motor_Speed.c ****         #endif /* (Z_Motor_Speed_UsingFixedFunction) */
 592:.\Generated_Source\PSoC5/Z_Motor_Speed.c ****     }
 593:.\Generated_Source\PSoC5/Z_Motor_Speed.c **** #endif /* UseOneCompareMode */
 594:.\Generated_Source\PSoC5/Z_Motor_Speed.c **** 
 595:.\Generated_Source\PSoC5/Z_Motor_Speed.c **** #if (Z_Motor_Speed_DeadBandUsed)
 596:.\Generated_Source\PSoC5/Z_Motor_Speed.c **** 
 597:.\Generated_Source\PSoC5/Z_Motor_Speed.c **** 
 598:.\Generated_Source\PSoC5/Z_Motor_Speed.c ****     /*******************************************************************************
 599:.\Generated_Source\PSoC5/Z_Motor_Speed.c ****     * Function Name: Z_Motor_Speed_WriteDeadTime
 600:.\Generated_Source\PSoC5/Z_Motor_Speed.c ****     ********************************************************************************
 601:.\Generated_Source\PSoC5/Z_Motor_Speed.c ****     *
 602:.\Generated_Source\PSoC5/Z_Motor_Speed.c ****     * Summary:
 603:.\Generated_Source\PSoC5/Z_Motor_Speed.c ****     *  This function writes the dead-band counts to the corresponding register
 604:.\Generated_Source\PSoC5/Z_Motor_Speed.c ****     *
 605:.\Generated_Source\PSoC5/Z_Motor_Speed.c ****     * Parameters:
 606:.\Generated_Source\PSoC5/Z_Motor_Speed.c ****     *  deadtime:  Number of counts for dead time
 607:.\Generated_Source\PSoC5/Z_Motor_Speed.c ****     *
 608:.\Generated_Source\PSoC5/Z_Motor_Speed.c ****     * Return:
 609:.\Generated_Source\PSoC5/Z_Motor_Speed.c ****     *  None
 610:.\Generated_Source\PSoC5/Z_Motor_Speed.c ****     *
 611:.\Generated_Source\PSoC5/Z_Motor_Speed.c ****     *******************************************************************************/
 612:.\Generated_Source\PSoC5/Z_Motor_Speed.c ****     void Z_Motor_Speed_WriteDeadTime(uint8 deadtime) 
 613:.\Generated_Source\PSoC5/Z_Motor_Speed.c ****     {
 614:.\Generated_Source\PSoC5/Z_Motor_Speed.c ****         /* If using the Dead Band 1-255 mode then just write the register */
 615:.\Generated_Source\PSoC5/Z_Motor_Speed.c ****         #if(!Z_Motor_Speed_DeadBand2_4)
ARM GAS  C:\Users\plod1602\AppData\Local\Temp\cc9ghWcO.s 			page 20


 616:.\Generated_Source\PSoC5/Z_Motor_Speed.c ****             CY_SET_REG8(Z_Motor_Speed_DEADBAND_COUNT_PTR, deadtime);
 617:.\Generated_Source\PSoC5/Z_Motor_Speed.c ****         #else
 618:.\Generated_Source\PSoC5/Z_Motor_Speed.c ****             /* Otherwise the data has to be masked and offset */
 619:.\Generated_Source\PSoC5/Z_Motor_Speed.c ****             /* Clear existing data */
 620:.\Generated_Source\PSoC5/Z_Motor_Speed.c ****             Z_Motor_Speed_DEADBAND_COUNT &= ((uint8)(~Z_Motor_Speed_DEADBAND_COUNT_MASK));
 621:.\Generated_Source\PSoC5/Z_Motor_Speed.c **** 
 622:.\Generated_Source\PSoC5/Z_Motor_Speed.c ****             /* Set new dead time */
 623:.\Generated_Source\PSoC5/Z_Motor_Speed.c ****             #if(Z_Motor_Speed_DEADBAND_COUNT_SHIFT)
 624:.\Generated_Source\PSoC5/Z_Motor_Speed.c ****                 Z_Motor_Speed_DEADBAND_COUNT |= ((uint8)((uint8)deadtime << Z_Motor_Speed_DEADBAND_
 625:.\Generated_Source\PSoC5/Z_Motor_Speed.c ****                                                     Z_Motor_Speed_DEADBAND_COUNT_MASK;
 626:.\Generated_Source\PSoC5/Z_Motor_Speed.c ****             #else
 627:.\Generated_Source\PSoC5/Z_Motor_Speed.c ****                 Z_Motor_Speed_DEADBAND_COUNT |= deadtime & Z_Motor_Speed_DEADBAND_COUNT_MASK;
 628:.\Generated_Source\PSoC5/Z_Motor_Speed.c ****             #endif /* (Z_Motor_Speed_DEADBAND_COUNT_SHIFT) */
 629:.\Generated_Source\PSoC5/Z_Motor_Speed.c **** 
 630:.\Generated_Source\PSoC5/Z_Motor_Speed.c ****         #endif /* (!Z_Motor_Speed_DeadBand2_4) */
 631:.\Generated_Source\PSoC5/Z_Motor_Speed.c ****     }
 632:.\Generated_Source\PSoC5/Z_Motor_Speed.c **** 
 633:.\Generated_Source\PSoC5/Z_Motor_Speed.c **** 
 634:.\Generated_Source\PSoC5/Z_Motor_Speed.c ****     /*******************************************************************************
 635:.\Generated_Source\PSoC5/Z_Motor_Speed.c ****     * Function Name: Z_Motor_Speed_ReadDeadTime
 636:.\Generated_Source\PSoC5/Z_Motor_Speed.c ****     ********************************************************************************
 637:.\Generated_Source\PSoC5/Z_Motor_Speed.c ****     *
 638:.\Generated_Source\PSoC5/Z_Motor_Speed.c ****     * Summary:
 639:.\Generated_Source\PSoC5/Z_Motor_Speed.c ****     *  This function reads the dead-band counts from the corresponding register
 640:.\Generated_Source\PSoC5/Z_Motor_Speed.c ****     *
 641:.\Generated_Source\PSoC5/Z_Motor_Speed.c ****     * Parameters:
 642:.\Generated_Source\PSoC5/Z_Motor_Speed.c ****     *  None
 643:.\Generated_Source\PSoC5/Z_Motor_Speed.c ****     *
 644:.\Generated_Source\PSoC5/Z_Motor_Speed.c ****     * Return:
 645:.\Generated_Source\PSoC5/Z_Motor_Speed.c ****     *  Dead Band Counts
 646:.\Generated_Source\PSoC5/Z_Motor_Speed.c ****     *
 647:.\Generated_Source\PSoC5/Z_Motor_Speed.c ****     *******************************************************************************/
 648:.\Generated_Source\PSoC5/Z_Motor_Speed.c ****     uint8 Z_Motor_Speed_ReadDeadTime(void) 
 649:.\Generated_Source\PSoC5/Z_Motor_Speed.c ****     {
 650:.\Generated_Source\PSoC5/Z_Motor_Speed.c ****         /* If using the Dead Band 1-255 mode then just read the register */
 651:.\Generated_Source\PSoC5/Z_Motor_Speed.c ****         #if(!Z_Motor_Speed_DeadBand2_4)
 652:.\Generated_Source\PSoC5/Z_Motor_Speed.c ****             return (CY_GET_REG8(Z_Motor_Speed_DEADBAND_COUNT_PTR));
 653:.\Generated_Source\PSoC5/Z_Motor_Speed.c ****         #else
 654:.\Generated_Source\PSoC5/Z_Motor_Speed.c **** 
 655:.\Generated_Source\PSoC5/Z_Motor_Speed.c ****             /* Otherwise the data has to be masked and offset */
 656:.\Generated_Source\PSoC5/Z_Motor_Speed.c ****             #if(Z_Motor_Speed_DEADBAND_COUNT_SHIFT)
 657:.\Generated_Source\PSoC5/Z_Motor_Speed.c ****                 return ((uint8)(((uint8)(Z_Motor_Speed_DEADBAND_COUNT & Z_Motor_Speed_DEADBAND_COUN
 658:.\Generated_Source\PSoC5/Z_Motor_Speed.c ****                                                                            Z_Motor_Speed_DEADBAND_C
 659:.\Generated_Source\PSoC5/Z_Motor_Speed.c ****             #else
 660:.\Generated_Source\PSoC5/Z_Motor_Speed.c ****                 return (Z_Motor_Speed_DEADBAND_COUNT & Z_Motor_Speed_DEADBAND_COUNT_MASK);
 661:.\Generated_Source\PSoC5/Z_Motor_Speed.c ****             #endif /* (Z_Motor_Speed_DEADBAND_COUNT_SHIFT) */
 662:.\Generated_Source\PSoC5/Z_Motor_Speed.c ****         #endif /* (!Z_Motor_Speed_DeadBand2_4) */
 663:.\Generated_Source\PSoC5/Z_Motor_Speed.c ****     }
 664:.\Generated_Source\PSoC5/Z_Motor_Speed.c **** #endif /* DeadBandUsed */
 665:.\Generated_Source\PSoC5/Z_Motor_Speed.c **** 
 666:.\Generated_Source\PSoC5/Z_Motor_Speed.c **** #if (Z_Motor_Speed_UseStatus || Z_Motor_Speed_UsingFixedFunction)
 667:.\Generated_Source\PSoC5/Z_Motor_Speed.c **** 
 668:.\Generated_Source\PSoC5/Z_Motor_Speed.c **** 
 669:.\Generated_Source\PSoC5/Z_Motor_Speed.c ****     /*******************************************************************************
 670:.\Generated_Source\PSoC5/Z_Motor_Speed.c ****     * Function Name: Z_Motor_Speed_SetInterruptMode
 671:.\Generated_Source\PSoC5/Z_Motor_Speed.c ****     ********************************************************************************
 672:.\Generated_Source\PSoC5/Z_Motor_Speed.c ****     *
ARM GAS  C:\Users\plod1602\AppData\Local\Temp\cc9ghWcO.s 			page 21


 673:.\Generated_Source\PSoC5/Z_Motor_Speed.c ****     * Summary:
 674:.\Generated_Source\PSoC5/Z_Motor_Speed.c ****     *  This function configures the interrupts mask control of theinterrupt
 675:.\Generated_Source\PSoC5/Z_Motor_Speed.c ****     *  source status register.
 676:.\Generated_Source\PSoC5/Z_Motor_Speed.c ****     *
 677:.\Generated_Source\PSoC5/Z_Motor_Speed.c ****     * Parameters:
 678:.\Generated_Source\PSoC5/Z_Motor_Speed.c ****     *  uint8 interruptMode: Bit field containing the interrupt sources enabled
 679:.\Generated_Source\PSoC5/Z_Motor_Speed.c ****     *
 680:.\Generated_Source\PSoC5/Z_Motor_Speed.c ****     * Return:
 681:.\Generated_Source\PSoC5/Z_Motor_Speed.c ****     *  None
 682:.\Generated_Source\PSoC5/Z_Motor_Speed.c ****     *
 683:.\Generated_Source\PSoC5/Z_Motor_Speed.c ****     *******************************************************************************/
 684:.\Generated_Source\PSoC5/Z_Motor_Speed.c ****     void Z_Motor_Speed_SetInterruptMode(uint8 interruptMode) 
 685:.\Generated_Source\PSoC5/Z_Motor_Speed.c ****     {
 686:.\Generated_Source\PSoC5/Z_Motor_Speed.c ****         CY_SET_REG8(Z_Motor_Speed_STATUS_MASK_PTR, interruptMode);
 687:.\Generated_Source\PSoC5/Z_Motor_Speed.c ****     }
 688:.\Generated_Source\PSoC5/Z_Motor_Speed.c **** 
 689:.\Generated_Source\PSoC5/Z_Motor_Speed.c **** 
 690:.\Generated_Source\PSoC5/Z_Motor_Speed.c ****     /*******************************************************************************
 691:.\Generated_Source\PSoC5/Z_Motor_Speed.c ****     * Function Name: Z_Motor_Speed_ReadStatusRegister
 692:.\Generated_Source\PSoC5/Z_Motor_Speed.c ****     ********************************************************************************
 693:.\Generated_Source\PSoC5/Z_Motor_Speed.c ****     *
 694:.\Generated_Source\PSoC5/Z_Motor_Speed.c ****     * Summary:
 695:.\Generated_Source\PSoC5/Z_Motor_Speed.c ****     *  This function returns the current state of the status register.
 696:.\Generated_Source\PSoC5/Z_Motor_Speed.c ****     *
 697:.\Generated_Source\PSoC5/Z_Motor_Speed.c ****     * Parameters:
 698:.\Generated_Source\PSoC5/Z_Motor_Speed.c ****     *  None
 699:.\Generated_Source\PSoC5/Z_Motor_Speed.c ****     *
 700:.\Generated_Source\PSoC5/Z_Motor_Speed.c ****     * Return:
 701:.\Generated_Source\PSoC5/Z_Motor_Speed.c ****     *  uint8 : Current status register value. The status register bits are:
 702:.\Generated_Source\PSoC5/Z_Motor_Speed.c ****     *  [7:6] : Unused(0)
 703:.\Generated_Source\PSoC5/Z_Motor_Speed.c ****     *  [5]   : Kill event output
 704:.\Generated_Source\PSoC5/Z_Motor_Speed.c ****     *  [4]   : FIFO not empty
 705:.\Generated_Source\PSoC5/Z_Motor_Speed.c ****     *  [3]   : FIFO full
 706:.\Generated_Source\PSoC5/Z_Motor_Speed.c ****     *  [2]   : Terminal count
 707:.\Generated_Source\PSoC5/Z_Motor_Speed.c ****     *  [1]   : Compare output 2
 708:.\Generated_Source\PSoC5/Z_Motor_Speed.c ****     *  [0]   : Compare output 1
 709:.\Generated_Source\PSoC5/Z_Motor_Speed.c ****     *
 710:.\Generated_Source\PSoC5/Z_Motor_Speed.c ****     *******************************************************************************/
 711:.\Generated_Source\PSoC5/Z_Motor_Speed.c ****     uint8 Z_Motor_Speed_ReadStatusRegister(void) 
 712:.\Generated_Source\PSoC5/Z_Motor_Speed.c ****     {
 713:.\Generated_Source\PSoC5/Z_Motor_Speed.c ****         return (CY_GET_REG8(Z_Motor_Speed_STATUS_PTR));
 714:.\Generated_Source\PSoC5/Z_Motor_Speed.c ****     }
 715:.\Generated_Source\PSoC5/Z_Motor_Speed.c **** 
 716:.\Generated_Source\PSoC5/Z_Motor_Speed.c **** #endif /* (Z_Motor_Speed_UseStatus || Z_Motor_Speed_UsingFixedFunction) */
 717:.\Generated_Source\PSoC5/Z_Motor_Speed.c **** 
 718:.\Generated_Source\PSoC5/Z_Motor_Speed.c **** 
 719:.\Generated_Source\PSoC5/Z_Motor_Speed.c **** #if (Z_Motor_Speed_UseControl)
 720:.\Generated_Source\PSoC5/Z_Motor_Speed.c **** 
 721:.\Generated_Source\PSoC5/Z_Motor_Speed.c **** 
 722:.\Generated_Source\PSoC5/Z_Motor_Speed.c ****     /*******************************************************************************
 723:.\Generated_Source\PSoC5/Z_Motor_Speed.c ****     * Function Name: Z_Motor_Speed_ReadControlRegister
 724:.\Generated_Source\PSoC5/Z_Motor_Speed.c ****     ********************************************************************************
 725:.\Generated_Source\PSoC5/Z_Motor_Speed.c ****     *
 726:.\Generated_Source\PSoC5/Z_Motor_Speed.c ****     * Summary:
 727:.\Generated_Source\PSoC5/Z_Motor_Speed.c ****     *  Returns the current state of the control register. This API is available
 728:.\Generated_Source\PSoC5/Z_Motor_Speed.c ****     *  only if the control register is not removed.
 729:.\Generated_Source\PSoC5/Z_Motor_Speed.c ****     *
ARM GAS  C:\Users\plod1602\AppData\Local\Temp\cc9ghWcO.s 			page 22


 730:.\Generated_Source\PSoC5/Z_Motor_Speed.c ****     * Parameters:
 731:.\Generated_Source\PSoC5/Z_Motor_Speed.c ****     *  None
 732:.\Generated_Source\PSoC5/Z_Motor_Speed.c ****     *
 733:.\Generated_Source\PSoC5/Z_Motor_Speed.c ****     * Return:
 734:.\Generated_Source\PSoC5/Z_Motor_Speed.c ****     *  uint8 : Current control register value
 735:.\Generated_Source\PSoC5/Z_Motor_Speed.c ****     *
 736:.\Generated_Source\PSoC5/Z_Motor_Speed.c ****     *******************************************************************************/
 737:.\Generated_Source\PSoC5/Z_Motor_Speed.c ****     uint8 Z_Motor_Speed_ReadControlRegister(void) 
 738:.\Generated_Source\PSoC5/Z_Motor_Speed.c ****     {
 469              		.loc 1 738 0
 470              		.cfi_startproc
 471              		@ args = 0, pretend = 0, frame = 8
 472              		@ frame_needed = 1, uses_anonymous_args = 0
 473              		@ link register save eliminated.
 474 0000 80B4     		push	{r7}
 475              		.cfi_def_cfa_offset 4
 476              		.cfi_offset 7, -4
 477 0002 83B0     		sub	sp, sp, #12
 478              		.cfi_def_cfa_offset 16
 479 0004 00AF     		add	r7, sp, #0
 480              		.cfi_def_cfa_register 7
 739:.\Generated_Source\PSoC5/Z_Motor_Speed.c ****         uint8 result;
 740:.\Generated_Source\PSoC5/Z_Motor_Speed.c **** 
 741:.\Generated_Source\PSoC5/Z_Motor_Speed.c ****         result = CY_GET_REG8(Z_Motor_Speed_CONTROL_PTR);
 481              		.loc 1 741 0
 482 0006 054B     		ldr	r3, .L32
 483 0008 1B78     		ldrb	r3, [r3]
 484 000a FB71     		strb	r3, [r7, #7]
 742:.\Generated_Source\PSoC5/Z_Motor_Speed.c ****         return (result);
 485              		.loc 1 742 0
 486 000c FB79     		ldrb	r3, [r7, #7]	@ zero_extendqisi2
 743:.\Generated_Source\PSoC5/Z_Motor_Speed.c ****     }
 487              		.loc 1 743 0
 488 000e 1846     		mov	r0, r3
 489 0010 0C37     		adds	r7, r7, #12
 490              		.cfi_def_cfa_offset 4
 491 0012 BD46     		mov	sp, r7
 492              		.cfi_def_cfa_register 13
 493              		@ sp needed
 494 0014 5DF8047B 		ldr	r7, [sp], #4
 495              		.cfi_restore 7
 496              		.cfi_def_cfa_offset 0
 497 0018 7047     		bx	lr
 498              	.L33:
 499 001a 00BF     		.align	2
 500              	.L32:
 501 001c 77640040 		.word	1073767543
 502              		.cfi_endproc
 503              	.LFE9:
 504              		.size	Z_Motor_Speed_ReadControlRegister, .-Z_Motor_Speed_ReadControlRegister
 505              		.section	.text.Z_Motor_Speed_WriteControlRegister,"ax",%progbits
 506              		.align	2
 507              		.global	Z_Motor_Speed_WriteControlRegister
 508              		.thumb
 509              		.thumb_func
 510              		.type	Z_Motor_Speed_WriteControlRegister, %function
 511              	Z_Motor_Speed_WriteControlRegister:
ARM GAS  C:\Users\plod1602\AppData\Local\Temp\cc9ghWcO.s 			page 23


 512              	.LFB10:
 744:.\Generated_Source\PSoC5/Z_Motor_Speed.c **** 
 745:.\Generated_Source\PSoC5/Z_Motor_Speed.c **** 
 746:.\Generated_Source\PSoC5/Z_Motor_Speed.c ****     /*******************************************************************************
 747:.\Generated_Source\PSoC5/Z_Motor_Speed.c ****     * Function Name: Z_Motor_Speed_WriteControlRegister
 748:.\Generated_Source\PSoC5/Z_Motor_Speed.c ****     ********************************************************************************
 749:.\Generated_Source\PSoC5/Z_Motor_Speed.c ****     *
 750:.\Generated_Source\PSoC5/Z_Motor_Speed.c ****     * Summary:
 751:.\Generated_Source\PSoC5/Z_Motor_Speed.c ****     *  Sets the bit field of the control register. This API is available only if
 752:.\Generated_Source\PSoC5/Z_Motor_Speed.c ****     *  the control register is not removed.
 753:.\Generated_Source\PSoC5/Z_Motor_Speed.c ****     *
 754:.\Generated_Source\PSoC5/Z_Motor_Speed.c ****     * Parameters:
 755:.\Generated_Source\PSoC5/Z_Motor_Speed.c ****     *  uint8 control: Control register bit field, The status register bits are:
 756:.\Generated_Source\PSoC5/Z_Motor_Speed.c ****     *  [7]   : PWM Enable
 757:.\Generated_Source\PSoC5/Z_Motor_Speed.c ****     *  [6]   : Reset
 758:.\Generated_Source\PSoC5/Z_Motor_Speed.c ****     *  [5:3] : Compare Mode2
 759:.\Generated_Source\PSoC5/Z_Motor_Speed.c ****     *  [2:0] : Compare Mode2
 760:.\Generated_Source\PSoC5/Z_Motor_Speed.c ****     *
 761:.\Generated_Source\PSoC5/Z_Motor_Speed.c ****     * Return:
 762:.\Generated_Source\PSoC5/Z_Motor_Speed.c ****     *  None
 763:.\Generated_Source\PSoC5/Z_Motor_Speed.c ****     *
 764:.\Generated_Source\PSoC5/Z_Motor_Speed.c ****     *******************************************************************************/
 765:.\Generated_Source\PSoC5/Z_Motor_Speed.c ****     void Z_Motor_Speed_WriteControlRegister(uint8 control) 
 766:.\Generated_Source\PSoC5/Z_Motor_Speed.c ****     {
 513              		.loc 1 766 0
 514              		.cfi_startproc
 515              		@ args = 0, pretend = 0, frame = 8
 516              		@ frame_needed = 1, uses_anonymous_args = 0
 517              		@ link register save eliminated.
 518 0000 80B4     		push	{r7}
 519              		.cfi_def_cfa_offset 4
 520              		.cfi_offset 7, -4
 521 0002 83B0     		sub	sp, sp, #12
 522              		.cfi_def_cfa_offset 16
 523 0004 00AF     		add	r7, sp, #0
 524              		.cfi_def_cfa_register 7
 525 0006 0346     		mov	r3, r0
 526 0008 FB71     		strb	r3, [r7, #7]
 767:.\Generated_Source\PSoC5/Z_Motor_Speed.c ****         CY_SET_REG8(Z_Motor_Speed_CONTROL_PTR, control);
 527              		.loc 1 767 0
 528 000a 044A     		ldr	r2, .L35
 529 000c FB79     		ldrb	r3, [r7, #7]
 530 000e 1370     		strb	r3, [r2]
 768:.\Generated_Source\PSoC5/Z_Motor_Speed.c ****     }
 531              		.loc 1 768 0
 532 0010 0C37     		adds	r7, r7, #12
 533              		.cfi_def_cfa_offset 4
 534 0012 BD46     		mov	sp, r7
 535              		.cfi_def_cfa_register 13
 536              		@ sp needed
 537 0014 5DF8047B 		ldr	r7, [sp], #4
 538              		.cfi_restore 7
 539              		.cfi_def_cfa_offset 0
 540 0018 7047     		bx	lr
 541              	.L36:
 542 001a 00BF     		.align	2
 543              	.L35:
ARM GAS  C:\Users\plod1602\AppData\Local\Temp\cc9ghWcO.s 			page 24


 544 001c 77640040 		.word	1073767543
 545              		.cfi_endproc
 546              	.LFE10:
 547              		.size	Z_Motor_Speed_WriteControlRegister, .-Z_Motor_Speed_WriteControlRegister
 548              		.section	.text.Z_Motor_Speed_ReadCapture,"ax",%progbits
 549              		.align	2
 550              		.global	Z_Motor_Speed_ReadCapture
 551              		.thumb
 552              		.thumb_func
 553              		.type	Z_Motor_Speed_ReadCapture, %function
 554              	Z_Motor_Speed_ReadCapture:
 555              	.LFB11:
 769:.\Generated_Source\PSoC5/Z_Motor_Speed.c **** 
 770:.\Generated_Source\PSoC5/Z_Motor_Speed.c **** #endif /* (Z_Motor_Speed_UseControl) */
 771:.\Generated_Source\PSoC5/Z_Motor_Speed.c **** 
 772:.\Generated_Source\PSoC5/Z_Motor_Speed.c **** 
 773:.\Generated_Source\PSoC5/Z_Motor_Speed.c **** #if (!Z_Motor_Speed_UsingFixedFunction)
 774:.\Generated_Source\PSoC5/Z_Motor_Speed.c **** 
 775:.\Generated_Source\PSoC5/Z_Motor_Speed.c **** 
 776:.\Generated_Source\PSoC5/Z_Motor_Speed.c ****     /*******************************************************************************
 777:.\Generated_Source\PSoC5/Z_Motor_Speed.c ****     * Function Name: Z_Motor_Speed_ReadCapture
 778:.\Generated_Source\PSoC5/Z_Motor_Speed.c ****     ********************************************************************************
 779:.\Generated_Source\PSoC5/Z_Motor_Speed.c ****     *
 780:.\Generated_Source\PSoC5/Z_Motor_Speed.c ****     * Summary:
 781:.\Generated_Source\PSoC5/Z_Motor_Speed.c ****     *  Reads the capture value from the capture FIFO.
 782:.\Generated_Source\PSoC5/Z_Motor_Speed.c ****     *
 783:.\Generated_Source\PSoC5/Z_Motor_Speed.c ****     * Parameters:
 784:.\Generated_Source\PSoC5/Z_Motor_Speed.c ****     *  None
 785:.\Generated_Source\PSoC5/Z_Motor_Speed.c ****     *
 786:.\Generated_Source\PSoC5/Z_Motor_Speed.c ****     * Return:
 787:.\Generated_Source\PSoC5/Z_Motor_Speed.c ****     *  uint8/uint16: The current capture value
 788:.\Generated_Source\PSoC5/Z_Motor_Speed.c ****     *
 789:.\Generated_Source\PSoC5/Z_Motor_Speed.c ****     *******************************************************************************/
 790:.\Generated_Source\PSoC5/Z_Motor_Speed.c ****     uint16 Z_Motor_Speed_ReadCapture(void) 
 791:.\Generated_Source\PSoC5/Z_Motor_Speed.c ****     {
 556              		.loc 1 791 0
 557              		.cfi_startproc
 558              		@ args = 0, pretend = 0, frame = 0
 559              		@ frame_needed = 1, uses_anonymous_args = 0
 560              		@ link register save eliminated.
 561 0000 80B4     		push	{r7}
 562              		.cfi_def_cfa_offset 4
 563              		.cfi_offset 7, -4
 564 0002 00AF     		add	r7, sp, #0
 565              		.cfi_def_cfa_register 7
 792:.\Generated_Source\PSoC5/Z_Motor_Speed.c ****         return (CY_GET_REG16(Z_Motor_Speed_CAPTURE_LSB_PTR));
 566              		.loc 1 792 0
 567 0004 034B     		ldr	r3, .L39
 568 0006 1B88     		ldrh	r3, [r3]	@ movhi
 569 0008 9BB2     		uxth	r3, r3
 793:.\Generated_Source\PSoC5/Z_Motor_Speed.c ****     }
 570              		.loc 1 793 0
 571 000a 1846     		mov	r0, r3
 572 000c BD46     		mov	sp, r7
 573              		.cfi_def_cfa_register 13
 574              		@ sp needed
 575 000e 5DF8047B 		ldr	r7, [sp], #4
ARM GAS  C:\Users\plod1602\AppData\Local\Temp\cc9ghWcO.s 			page 25


 576              		.cfi_restore 7
 577              		.cfi_def_cfa_offset 0
 578 0012 7047     		bx	lr
 579              	.L40:
 580              		.align	2
 581              	.L39:
 582 0014 AC680040 		.word	1073768620
 583              		.cfi_endproc
 584              	.LFE11:
 585              		.size	Z_Motor_Speed_ReadCapture, .-Z_Motor_Speed_ReadCapture
 586              		.section	.text.Z_Motor_Speed_ReadCompare,"ax",%progbits
 587              		.align	2
 588              		.global	Z_Motor_Speed_ReadCompare
 589              		.thumb
 590              		.thumb_func
 591              		.type	Z_Motor_Speed_ReadCompare, %function
 592              	Z_Motor_Speed_ReadCompare:
 593              	.LFB12:
 794:.\Generated_Source\PSoC5/Z_Motor_Speed.c **** 
 795:.\Generated_Source\PSoC5/Z_Motor_Speed.c **** #endif /* (!Z_Motor_Speed_UsingFixedFunction) */
 796:.\Generated_Source\PSoC5/Z_Motor_Speed.c **** 
 797:.\Generated_Source\PSoC5/Z_Motor_Speed.c **** 
 798:.\Generated_Source\PSoC5/Z_Motor_Speed.c **** #if (Z_Motor_Speed_UseOneCompareMode)
 799:.\Generated_Source\PSoC5/Z_Motor_Speed.c **** 
 800:.\Generated_Source\PSoC5/Z_Motor_Speed.c **** 
 801:.\Generated_Source\PSoC5/Z_Motor_Speed.c ****     /*******************************************************************************
 802:.\Generated_Source\PSoC5/Z_Motor_Speed.c ****     * Function Name: Z_Motor_Speed_ReadCompare
 803:.\Generated_Source\PSoC5/Z_Motor_Speed.c ****     ********************************************************************************
 804:.\Generated_Source\PSoC5/Z_Motor_Speed.c ****     *
 805:.\Generated_Source\PSoC5/Z_Motor_Speed.c ****     * Summary:
 806:.\Generated_Source\PSoC5/Z_Motor_Speed.c ****     *  Reads the compare value for the compare output when the PWM Mode parameter is
 807:.\Generated_Source\PSoC5/Z_Motor_Speed.c ****     *  set to Dither mode, Center Aligned mode, or One Output mode.
 808:.\Generated_Source\PSoC5/Z_Motor_Speed.c ****     *
 809:.\Generated_Source\PSoC5/Z_Motor_Speed.c ****     * Parameters:
 810:.\Generated_Source\PSoC5/Z_Motor_Speed.c ****     *  None
 811:.\Generated_Source\PSoC5/Z_Motor_Speed.c ****     *
 812:.\Generated_Source\PSoC5/Z_Motor_Speed.c ****     * Return:
 813:.\Generated_Source\PSoC5/Z_Motor_Speed.c ****     *  uint8/uint16: Current compare value
 814:.\Generated_Source\PSoC5/Z_Motor_Speed.c ****     *
 815:.\Generated_Source\PSoC5/Z_Motor_Speed.c ****     *******************************************************************************/
 816:.\Generated_Source\PSoC5/Z_Motor_Speed.c ****     uint16 Z_Motor_Speed_ReadCompare(void) 
 817:.\Generated_Source\PSoC5/Z_Motor_Speed.c ****     {
 594              		.loc 1 817 0
 595              		.cfi_startproc
 596              		@ args = 0, pretend = 0, frame = 0
 597              		@ frame_needed = 1, uses_anonymous_args = 0
 598              		@ link register save eliminated.
 599 0000 80B4     		push	{r7}
 600              		.cfi_def_cfa_offset 4
 601              		.cfi_offset 7, -4
 602 0002 00AF     		add	r7, sp, #0
 603              		.cfi_def_cfa_register 7
 818:.\Generated_Source\PSoC5/Z_Motor_Speed.c ****         #if(Z_Motor_Speed_UsingFixedFunction)
 819:.\Generated_Source\PSoC5/Z_Motor_Speed.c ****             return ((uint16)CY_GET_REG16(Z_Motor_Speed_COMPARE1_LSB_PTR));
 820:.\Generated_Source\PSoC5/Z_Motor_Speed.c ****         #else
 821:.\Generated_Source\PSoC5/Z_Motor_Speed.c ****             return (CY_GET_REG16(Z_Motor_Speed_COMPARE1_LSB_PTR));
 604              		.loc 1 821 0
ARM GAS  C:\Users\plod1602\AppData\Local\Temp\cc9ghWcO.s 			page 26


 605 0004 034B     		ldr	r3, .L43
 606 0006 1B88     		ldrh	r3, [r3]	@ movhi
 607 0008 9BB2     		uxth	r3, r3
 822:.\Generated_Source\PSoC5/Z_Motor_Speed.c ****         #endif /* (Z_Motor_Speed_UsingFixedFunction) */
 823:.\Generated_Source\PSoC5/Z_Motor_Speed.c ****     }
 608              		.loc 1 823 0
 609 000a 1846     		mov	r0, r3
 610 000c BD46     		mov	sp, r7
 611              		.cfi_def_cfa_register 13
 612              		@ sp needed
 613 000e 5DF8047B 		ldr	r7, [sp], #4
 614              		.cfi_restore 7
 615              		.cfi_def_cfa_offset 0
 616 0012 7047     		bx	lr
 617              	.L44:
 618              		.align	2
 619              	.L43:
 620 0014 4C680040 		.word	1073768524
 621              		.cfi_endproc
 622              	.LFE12:
 623              		.size	Z_Motor_Speed_ReadCompare, .-Z_Motor_Speed_ReadCompare
 624              		.section	.text.Z_Motor_Speed_ReadPeriod,"ax",%progbits
 625              		.align	2
 626              		.global	Z_Motor_Speed_ReadPeriod
 627              		.thumb
 628              		.thumb_func
 629              		.type	Z_Motor_Speed_ReadPeriod, %function
 630              	Z_Motor_Speed_ReadPeriod:
 631              	.LFB13:
 824:.\Generated_Source\PSoC5/Z_Motor_Speed.c **** 
 825:.\Generated_Source\PSoC5/Z_Motor_Speed.c **** #else
 826:.\Generated_Source\PSoC5/Z_Motor_Speed.c **** 
 827:.\Generated_Source\PSoC5/Z_Motor_Speed.c **** 
 828:.\Generated_Source\PSoC5/Z_Motor_Speed.c ****     /*******************************************************************************
 829:.\Generated_Source\PSoC5/Z_Motor_Speed.c ****     * Function Name: Z_Motor_Speed_ReadCompare1
 830:.\Generated_Source\PSoC5/Z_Motor_Speed.c ****     ********************************************************************************
 831:.\Generated_Source\PSoC5/Z_Motor_Speed.c ****     *
 832:.\Generated_Source\PSoC5/Z_Motor_Speed.c ****     * Summary:
 833:.\Generated_Source\PSoC5/Z_Motor_Speed.c ****     *  Reads the compare value for the compare1 output.
 834:.\Generated_Source\PSoC5/Z_Motor_Speed.c ****     *
 835:.\Generated_Source\PSoC5/Z_Motor_Speed.c ****     * Parameters:
 836:.\Generated_Source\PSoC5/Z_Motor_Speed.c ****     *  None
 837:.\Generated_Source\PSoC5/Z_Motor_Speed.c ****     *
 838:.\Generated_Source\PSoC5/Z_Motor_Speed.c ****     * Return:
 839:.\Generated_Source\PSoC5/Z_Motor_Speed.c ****     *  uint8/uint16: Current compare value.
 840:.\Generated_Source\PSoC5/Z_Motor_Speed.c ****     *
 841:.\Generated_Source\PSoC5/Z_Motor_Speed.c ****     *******************************************************************************/
 842:.\Generated_Source\PSoC5/Z_Motor_Speed.c ****     uint16 Z_Motor_Speed_ReadCompare1(void) 
 843:.\Generated_Source\PSoC5/Z_Motor_Speed.c ****     {
 844:.\Generated_Source\PSoC5/Z_Motor_Speed.c ****         return (CY_GET_REG16(Z_Motor_Speed_COMPARE1_LSB_PTR));
 845:.\Generated_Source\PSoC5/Z_Motor_Speed.c ****     }
 846:.\Generated_Source\PSoC5/Z_Motor_Speed.c **** 
 847:.\Generated_Source\PSoC5/Z_Motor_Speed.c **** 
 848:.\Generated_Source\PSoC5/Z_Motor_Speed.c ****     /*******************************************************************************
 849:.\Generated_Source\PSoC5/Z_Motor_Speed.c ****     * Function Name: Z_Motor_Speed_ReadCompare2
 850:.\Generated_Source\PSoC5/Z_Motor_Speed.c ****     ********************************************************************************
 851:.\Generated_Source\PSoC5/Z_Motor_Speed.c ****     *
ARM GAS  C:\Users\plod1602\AppData\Local\Temp\cc9ghWcO.s 			page 27


 852:.\Generated_Source\PSoC5/Z_Motor_Speed.c ****     * Summary:
 853:.\Generated_Source\PSoC5/Z_Motor_Speed.c ****     *  Reads the compare value for the compare2 output.
 854:.\Generated_Source\PSoC5/Z_Motor_Speed.c ****     *
 855:.\Generated_Source\PSoC5/Z_Motor_Speed.c ****     * Parameters:
 856:.\Generated_Source\PSoC5/Z_Motor_Speed.c ****     *  None
 857:.\Generated_Source\PSoC5/Z_Motor_Speed.c ****     *
 858:.\Generated_Source\PSoC5/Z_Motor_Speed.c ****     * Return:
 859:.\Generated_Source\PSoC5/Z_Motor_Speed.c ****     *  uint8/uint16: Current compare value.
 860:.\Generated_Source\PSoC5/Z_Motor_Speed.c ****     *
 861:.\Generated_Source\PSoC5/Z_Motor_Speed.c ****     *******************************************************************************/
 862:.\Generated_Source\PSoC5/Z_Motor_Speed.c ****     uint16 Z_Motor_Speed_ReadCompare2(void) 
 863:.\Generated_Source\PSoC5/Z_Motor_Speed.c ****     {
 864:.\Generated_Source\PSoC5/Z_Motor_Speed.c ****         return (CY_GET_REG16(Z_Motor_Speed_COMPARE2_LSB_PTR));
 865:.\Generated_Source\PSoC5/Z_Motor_Speed.c ****     }
 866:.\Generated_Source\PSoC5/Z_Motor_Speed.c **** 
 867:.\Generated_Source\PSoC5/Z_Motor_Speed.c **** #endif /* (Z_Motor_Speed_UseOneCompareMode) */
 868:.\Generated_Source\PSoC5/Z_Motor_Speed.c **** 
 869:.\Generated_Source\PSoC5/Z_Motor_Speed.c **** 
 870:.\Generated_Source\PSoC5/Z_Motor_Speed.c **** /*******************************************************************************
 871:.\Generated_Source\PSoC5/Z_Motor_Speed.c **** * Function Name: Z_Motor_Speed_ReadPeriod
 872:.\Generated_Source\PSoC5/Z_Motor_Speed.c **** ********************************************************************************
 873:.\Generated_Source\PSoC5/Z_Motor_Speed.c **** *
 874:.\Generated_Source\PSoC5/Z_Motor_Speed.c **** * Summary:
 875:.\Generated_Source\PSoC5/Z_Motor_Speed.c **** *  Reads the period value used by the PWM hardware.
 876:.\Generated_Source\PSoC5/Z_Motor_Speed.c **** *
 877:.\Generated_Source\PSoC5/Z_Motor_Speed.c **** * Parameters:
 878:.\Generated_Source\PSoC5/Z_Motor_Speed.c **** *  None
 879:.\Generated_Source\PSoC5/Z_Motor_Speed.c **** *
 880:.\Generated_Source\PSoC5/Z_Motor_Speed.c **** * Return:
 881:.\Generated_Source\PSoC5/Z_Motor_Speed.c **** *  uint8/16: Period value
 882:.\Generated_Source\PSoC5/Z_Motor_Speed.c **** *
 883:.\Generated_Source\PSoC5/Z_Motor_Speed.c **** *******************************************************************************/
 884:.\Generated_Source\PSoC5/Z_Motor_Speed.c **** uint16 Z_Motor_Speed_ReadPeriod(void) 
 885:.\Generated_Source\PSoC5/Z_Motor_Speed.c **** {
 632              		.loc 1 885 0
 633              		.cfi_startproc
 634              		@ args = 0, pretend = 0, frame = 0
 635              		@ frame_needed = 1, uses_anonymous_args = 0
 636              		@ link register save eliminated.
 637 0000 80B4     		push	{r7}
 638              		.cfi_def_cfa_offset 4
 639              		.cfi_offset 7, -4
 640 0002 00AF     		add	r7, sp, #0
 641              		.cfi_def_cfa_register 7
 886:.\Generated_Source\PSoC5/Z_Motor_Speed.c ****     #if(Z_Motor_Speed_UsingFixedFunction)
 887:.\Generated_Source\PSoC5/Z_Motor_Speed.c ****         return ((uint16)CY_GET_REG16(Z_Motor_Speed_PERIOD_LSB_PTR));
 888:.\Generated_Source\PSoC5/Z_Motor_Speed.c ****     #else
 889:.\Generated_Source\PSoC5/Z_Motor_Speed.c ****         return (CY_GET_REG16(Z_Motor_Speed_PERIOD_LSB_PTR));
 642              		.loc 1 889 0
 643 0004 034B     		ldr	r3, .L47
 644 0006 1B88     		ldrh	r3, [r3]	@ movhi
 645 0008 9BB2     		uxth	r3, r3
 890:.\Generated_Source\PSoC5/Z_Motor_Speed.c ****     #endif /* (Z_Motor_Speed_UsingFixedFunction) */
 891:.\Generated_Source\PSoC5/Z_Motor_Speed.c **** }
 646              		.loc 1 891 0
 647 000a 1846     		mov	r0, r3
 648 000c BD46     		mov	sp, r7
ARM GAS  C:\Users\plod1602\AppData\Local\Temp\cc9ghWcO.s 			page 28


 649              		.cfi_def_cfa_register 13
 650              		@ sp needed
 651 000e 5DF8047B 		ldr	r7, [sp], #4
 652              		.cfi_restore 7
 653              		.cfi_def_cfa_offset 0
 654 0012 7047     		bx	lr
 655              	.L48:
 656              		.align	2
 657              	.L47:
 658 0014 8C680040 		.word	1073768588
 659              		.cfi_endproc
 660              	.LFE13:
 661              		.size	Z_Motor_Speed_ReadPeriod, .-Z_Motor_Speed_ReadPeriod
 662              		.text
 663              	.Letext0:
 664              		.file 2 ".\\Generated_Source\\PSoC5\\cytypes.h"